

Microchip MPLAB XC8 Assembler V2.41 build 20230208172133 
                                                                                               Wed Aug 07 15:01:16 2024

Microchip MPLAB XC8 C Compiler v2.41 (Free license) build 20230208172133 Og1 
     1                           	processor	16F877A
     2                           	pagewidth 120
     3                           	opt	flic
     4                           	psect	idataBANK1,global,class=CODE,delta=2,noexec
     5                           	psect	cinit,global,class=CODE,merge=1,delta=2
     6                           	psect	dataBANK1,global,class=BANK1,space=1,delta=1,noexec
     7                           	psect	inittext,global,class=CODE,delta=2
     8                           	psect	cstackCOMMON,global,class=COMMON,space=1,delta=1,noexec
     9                           	psect	cstackBANK0,global,class=BANK0,space=1,delta=1,noexec
    10                           	psect	maintext,global,class=CODE,split=1,delta=2
    11                           	psect	text1,local,class=CODE,merge=1,delta=2
    12                           	psect	text2,local,class=CODE,merge=1,delta=2,group=1
    13                           	psect	text3,local,class=CODE,merge=1,delta=2,group=1
    14                           	psect	text4,local,class=CODE,merge=1,delta=2,group=1
    15                           	psect	text5,local,class=CODE,merge=1,delta=2,group=1
    16                           	psect	text6,local,class=CODE,merge=1,delta=2,group=1
    17                           	psect	text7,local,class=CODE,merge=1,delta=2,group=1
    18                           	psect	text8,local,class=CODE,merge=1,delta=2,group=1
    19                           	psect	text9,local,class=CODE,merge=1,delta=2,group=1
    20                           	psect	text10,local,class=CODE,merge=1,delta=2
    21                           	psect	text11,local,class=CODE,merge=1,delta=2
    22                           	psect	config,global,abs,ovrld,class=CONFIG,space=4,delta=2,noexec
    23                           	dabs	1,0x7E,2
    24     0000                     
    25                           ; Generated 22/03/2023 GMT
    26                           ; 
    27                           ; Copyright © 2023, Microchip Technology Inc. and its subsidiaries ("Microchip")
    28                           ; All rights reserved.
    29                           ; 
    30                           ; This software is developed by Microchip Technology Inc. and its subsidiaries ("Microch
      +                          ip").
    31                           ; 
    32                           ; Redistribution and use in source and binary forms, with or without modification, are
    33                           ; permitted provided that the following conditions are met:
    34                           ; 
    35                           ;     1. Redistributions of source code must retain the above copyright notice, this lis
      +                          t of
    36                           ;        conditions and the following disclaimer.
    37                           ; 
    38                           ;     2. Redistributions in binary form must reproduce the above copyright notice, this 
      +                          list
    39                           ;        of conditions and the following disclaimer in the documentation and/or other
    40                           ;        materials provided with the distribution. Publication is not required when
    41                           ;        this file is used in an embedded application.
    42                           ; 
    43                           ;     3. Microchip's name may not be used to endorse or promote products derived from th
      +                          is
    44                           ;        software without specific prior written permission.
    45                           ; 
    46                           ; THIS SOFTWARE IS PROVIDED BY MICROCHIP "AS IS" AND ANY EXPRESS OR IMPLIED WARRANTIES,
    47                           ; INCLUDING, BUT NOT LIMITED TO, THE IMPLIED WARRANTIES OF MERCHANTABILITY AND FITNESS F
      +                          OR
    48                           ; PURPOSE ARE DISCLAIMED.  IN NO EVENT SHALL MICROCHIP BE LIABLE FOR ANY DIRECT, INDIREC
      +                          T,
    49                           ; INCIDENTAL, SPECIAL, EXEMPLARY, OR CONSEQUENTIAL DAMAGES (INCLUDING BUT NOT LIMITED TO
    50                           ; PROCUREMENT OF SUBSTITUTE GOODS OR SERVICES; LOSS OF USE, DATA OR PROFITS; OR BUSINESS
    51                           ; INTERRUPTION) HOWSOEVER CAUSED AND ON ANY THEORY OF LIABILITY, WHETHER IN CONTRACT, ST
      +                          RICT
    52                           ; LIABILITY, OR TORT (INCLUDING NEGLIGENCE OR OTHERWISE) ARISING IN ANY WAY OUT OF THE U
      +                          SE OF
    53                           ; THIS SOFTWARE, EVEN IF ADVISED OF THE POSSIBILITY OF SUCH DAMAGE.
    54                           ; 
    55                           ; 
    56                           ; Code-generator required, PIC16F877A Definitions
    57                           ; 
    58                           ; SFR Addresses
    59     0000                     	;# 
    60     0001                     	;# 
    61     0002                     	;# 
    62     0003                     	;# 
    63     0004                     	;# 
    64     0005                     	;# 
    65     0006                     	;# 
    66     0007                     	;# 
    67     0008                     	;# 
    68     0009                     	;# 
    69     000A                     	;# 
    70     000B                     	;# 
    71     000C                     	;# 
    72     000D                     	;# 
    73     000E                     	;# 
    74     000E                     	;# 
    75     000F                     	;# 
    76     0010                     	;# 
    77     0011                     	;# 
    78     0012                     	;# 
    79     0013                     	;# 
    80     0014                     	;# 
    81     0015                     	;# 
    82     0015                     	;# 
    83     0016                     	;# 
    84     0017                     	;# 
    85     0018                     	;# 
    86     0019                     	;# 
    87     001A                     	;# 
    88     001B                     	;# 
    89     001B                     	;# 
    90     001C                     	;# 
    91     001D                     	;# 
    92     001E                     	;# 
    93     001F                     	;# 
    94     0081                     	;# 
    95     0085                     	;# 
    96     0086                     	;# 
    97     0087                     	;# 
    98     0088                     	;# 
    99     0089                     	;# 
   100     008C                     	;# 
   101     008D                     	;# 
   102     008E                     	;# 
   103     0091                     	;# 
   104     0092                     	;# 
   105     0093                     	;# 
   106     0094                     	;# 
   107     0098                     	;# 
   108     0099                     	;# 
   109     009C                     	;# 
   110     009D                     	;# 
   111     009E                     	;# 
   112     009F                     	;# 
   113     010C                     	;# 
   114     010D                     	;# 
   115     010E                     	;# 
   116     010F                     	;# 
   117     018C                     	;# 
   118     018D                     	;# 
   119     0000                     	;# 
   120     0001                     	;# 
   121     0002                     	;# 
   122     0003                     	;# 
   123     0004                     	;# 
   124     0005                     	;# 
   125     0006                     	;# 
   126     0007                     	;# 
   127     0008                     	;# 
   128     0009                     	;# 
   129     000A                     	;# 
   130     000B                     	;# 
   131     000C                     	;# 
   132     000D                     	;# 
   133     000E                     	;# 
   134     000E                     	;# 
   135     000F                     	;# 
   136     0010                     	;# 
   137     0011                     	;# 
   138     0012                     	;# 
   139     0013                     	;# 
   140     0014                     	;# 
   141     0015                     	;# 
   142     0015                     	;# 
   143     0016                     	;# 
   144     0017                     	;# 
   145     0018                     	;# 
   146     0019                     	;# 
   147     001A                     	;# 
   148     001B                     	;# 
   149     001B                     	;# 
   150     001C                     	;# 
   151     001D                     	;# 
   152     001E                     	;# 
   153     001F                     	;# 
   154     0081                     	;# 
   155     0085                     	;# 
   156     0086                     	;# 
   157     0087                     	;# 
   158     0088                     	;# 
   159     0089                     	;# 
   160     008C                     	;# 
   161     008D                     	;# 
   162     008E                     	;# 
   163     0091                     	;# 
   164     0092                     	;# 
   165     0093                     	;# 
   166     0094                     	;# 
   167     0098                     	;# 
   168     0099                     	;# 
   169     009C                     	;# 
   170     009D                     	;# 
   171     009E                     	;# 
   172     009F                     	;# 
   173     010C                     	;# 
   174     010D                     	;# 
   175     010E                     	;# 
   176     010F                     	;# 
   177     018C                     	;# 
   178     018D                     	;# 
   179                           
   180                           	psect	idataBANK1
   181     0012                     __pidataBANK1:
   182                           
   183                           ;initializer for _dot
   184     0012  3440               	retlw	64
   185     0013  3479               	retlw	121
   186     0014  3424               	retlw	36
   187     0015  3430               	retlw	48
   188     0016  3419               	retlw	25
   189     0017  3412               	retlw	18
   190     0018  3402               	retlw	2
   191     0019  3478               	retlw	120
   192     001A  3400               	retlw	0
   193     001B  3410               	retlw	16
   194                           
   195                           ;initializer for _digital
   196     001C  34C0               	retlw	192
   197     001D  34F9               	retlw	249
   198     001E  34A4               	retlw	164
   199     001F  34B0               	retlw	176
   200     0020  3499               	retlw	153
   201     0021  3492               	retlw	146
   202     0022  3482               	retlw	130
   203     0023  34F8               	retlw	248
   204     0024  3480               	retlw	128
   205     0025  3490               	retlw	144
   206     0006                     _PORTB	set	6
   207     001E                     _ADRESH	set	30
   208     001F                     _ADCON0	set	31
   209     0039                     _RC1	set	57
   210     0038                     _RC0	set	56
   211     00FA                     _GO_nDONE	set	250
   212     0085                     _TRISA	set	133
   213     0087                     _TRISC	set	135
   214     0086                     _TRISB	set	134
   215     009E                     _ADRESL	set	158
   216     009F                     _ADCON1	set	159
   217                           
   218                           	psect	cinit
   219     07EE                     start_initialization:	
   220                           ; #config settings
   221                           
   222     07EE                     __initialization:
   223                           
   224                           ; Initialize objects allocated to BANK1
   225     07EE  1383               	bcf	3,7	;select IRP bank0
   226     07EF  30B4               	movlw	low (__pdataBANK1+20)
   227     07F0  00FD               	movwf	btemp+-1
   228     07F1  3000               	movlw	high __pidataBANK1
   229     07F2  00FE               	movwf	btemp
   230     07F3  3012               	movlw	low __pidataBANK1
   231     07F4  00FF               	movwf	btemp+1
   232     07F5  30A0               	movlw	low __pdataBANK1
   233     07F6  0084               	movwf	4
   234     07F7  120A  158A  26DE  120A  118A  	fcall	init_ram0
   235     07FC                     end_of_initialization:	
   236                           ;End of C runtime variable initialization code
   237                           
   238     07FC                     __end_of__initialization:
   239     07FC  0183               	clrf	3
   240     07FD  120A  158A  2F97   	ljmp	_main	;jump to C main() function
   241                           
   242                           	psect	dataBANK1
   243     00A0                     __pdataBANK1:
   244     00A0                     _dot:
   245     00A0                     	ds	10
   246     00AA                     _digital:
   247     00AA                     	ds	10
   248                           
   249                           	psect	inittext
   250     0EDA                     init_fetch0:	
   251                           ;	Called with low address in FSR and high address in W
   252                           
   253     0EDA  087E               	movf	btemp,w
   254     0EDB  008A               	movwf	10
   255     0EDC  087F               	movf	btemp+1,w
   256     0EDD  0082               	movwf	2
   257     0EDE                     init_ram0:	
   258                           ;Called with:
   259                           ;	high address of idata address in btemp 
   260                           ;	low address of idata address in btemp+1 
   261                           ;	low address of data in FSR
   262                           ;	high address + 1 of data in btemp-1
   263                           
   264     0EDE  120A  158A  26DA  120A  158A  	fcall	init_fetch0
   265     0EE3  0080               	movwf	0
   266     0EE4  0A84               	incf	4,f
   267     0EE5  0804               	movf	4,w
   268     0EE6  067D               	xorwf	btemp+-1,w
   269     0EE7  1903               	btfsc	3,2
   270     0EE8  3400               	retlw	0
   271     0EE9  0AFF               	incf	btemp+1,f
   272     0EEA  1903               	btfsc	3,2
   273     0EEB  0AFE               	incf	btemp,f
   274     0EEC  2EDE               	goto	init_ram0
   275                           
   276                           	psect	cstackCOMMON
   277     0070                     __pcstackCOMMON:
   278     0070                     ?_ADC_Init:
   279     0070                     ??_ADC_Init:	
   280                           ; 1 bytes @ 0x0
   281                           
   282     0070                     ?_main:	
   283                           ; 1 bytes @ 0x0
   284                           
   285     0070                     ?__Umul8_16:	
   286                           ; 1 bytes @ 0x0
   287                           
   288     0070                     ?_ADC_Read:	
   289                           ; 2 bytes @ 0x0
   290                           
   291     0070                     ?___wmul:	
   292                           ; 2 bytes @ 0x0
   293                           
   294     0070                     ?___fladd:	
   295                           ; 2 bytes @ 0x0
   296                           
   297     0070                     __Umul8_16@multiplicand:	
   298                           ; 4 bytes @ 0x0
   299                           
   300     0070                     ADC_Read@channel:	
   301                           ; 1 bytes @ 0x0
   302                           
   303     0070                     ___wmul@multiplier:	
   304                           ; 2 bytes @ 0x0
   305                           
   306     0070                     ___fladd@b:	
   307                           ; 2 bytes @ 0x0
   308                           
   309                           
   310                           ; 4 bytes @ 0x0
   311     0070                     	ds	2
   312     0072                     ??__Umul8_16:
   313     0072                     ??_ADC_Read:	
   314                           ; 1 bytes @ 0x2
   315                           
   316     0072                     ___wmul@multiplicand:	
   317                           ; 1 bytes @ 0x2
   318                           
   319                           
   320                           ; 2 bytes @ 0x2
   321     0072                     	ds	2
   322     0074                     ??___wmul:
   323     0074                     ___wmul@product:	
   324                           ; 1 bytes @ 0x4
   325                           
   326     0074                     __Umul8_16@product:	
   327                           ; 2 bytes @ 0x4
   328                           
   329     0074                     ___fladd@a:	
   330                           ; 2 bytes @ 0x4
   331                           
   332                           
   333                           ; 4 bytes @ 0x4
   334     0074                     	ds	2
   335     0076                     ?___lwdiv:
   336     0076                     ___lwdiv@divisor:	
   337                           ; 2 bytes @ 0x6
   338                           
   339     0076                     __Umul8_16@word_mpld:	
   340                           ; 2 bytes @ 0x6
   341                           
   342                           
   343                           ; 2 bytes @ 0x6
   344     0076                     	ds	2
   345     0078                     ___fladd@signs:
   346     0078                     __Umul8_16@multiplier:	
   347                           ; 1 bytes @ 0x8
   348                           
   349     0078                     ___lwdiv@dividend:	
   350                           ; 1 bytes @ 0x8
   351                           
   352                           
   353                           ; 2 bytes @ 0x8
   354     0078                     	ds	1
   355     0079                     ___fladd@aexp:
   356                           
   357                           ; 1 bytes @ 0x9
   358     0079                     	ds	1
   359     007A                     ??___lwdiv:
   360     007A                     ___fladd@bexp:	
   361                           ; 1 bytes @ 0xA
   362                           
   363     007A                     ___lwdiv@quotient:	
   364                           ; 1 bytes @ 0xA
   365                           
   366                           
   367                           ; 2 bytes @ 0xA
   368     007A                     	ds	1
   369     007B                     ___fladd@grs:
   370                           
   371                           ; 1 bytes @ 0xB
   372     007B                     	ds	1
   373     007C                     ___lwdiv@counter:
   374                           
   375                           ; 1 bytes @ 0xC
   376     007C                     	ds	1
   377     007D                     ??___flsub:
   378                           
   379                           	psect	cstackBANK0
   380     0020                     __pcstackBANK0:	
   381                           ; 1 bytes @ 0xD
   382                           
   383     0020                     ??___fladd:
   384     0020                     ?___xxtofl:	
   385                           ; 1 bytes @ 0x0
   386                           
   387     0020                     ___xxtofl@val:	
   388                           ; 4 bytes @ 0x0
   389                           
   390                           
   391                           ; 4 bytes @ 0x0
   392     0020                     	ds	4
   393     0024                     ??___xxtofl:
   394                           
   395                           ; 1 bytes @ 0x4
   396     0024                     	ds	4
   397     0028                     ___xxtofl@sign:
   398                           
   399                           ; 1 bytes @ 0x8
   400     0028                     	ds	1
   401     0029                     ___xxtofl@exp:
   402                           
   403                           ; 1 bytes @ 0x9
   404     0029                     	ds	1
   405     002A                     ___xxtofl@arg:
   406                           
   407                           ; 4 bytes @ 0xA
   408     002A                     	ds	4
   409     002E                     ?___flsub:
   410     002E                     ___flsub@a:	
   411                           ; 4 bytes @ 0xE
   412                           
   413                           
   414                           ; 4 bytes @ 0xE
   415     002E                     	ds	4
   416     0032                     ___flsub@b:
   417                           
   418                           ; 4 bytes @ 0x12
   419     0032                     	ds	4
   420     0036                     ?___flmul:
   421     0036                     ___flmul@b:	
   422                           ; 4 bytes @ 0x16
   423                           
   424                           
   425                           ; 4 bytes @ 0x16
   426     0036                     	ds	4
   427     003A                     ___flmul@a:
   428                           
   429                           ; 4 bytes @ 0x1A
   430     003A                     	ds	4
   431     003E                     ??___flmul:
   432                           
   433                           ; 1 bytes @ 0x1E
   434     003E                     	ds	5
   435     0043                     ___flmul@sign:
   436                           
   437                           ; 1 bytes @ 0x23
   438     0043                     	ds	1
   439     0044                     ___flmul@grs:
   440                           
   441                           ; 4 bytes @ 0x24
   442     0044                     	ds	4
   443     0048                     ___flmul@aexp:
   444                           
   445                           ; 1 bytes @ 0x28
   446     0048                     	ds	1
   447     0049                     ___flmul@bexp:
   448                           
   449                           ; 1 bytes @ 0x29
   450     0049                     	ds	1
   451     004A                     ___flmul@prod:
   452                           
   453                           ; 4 bytes @ 0x2A
   454     004A                     	ds	4
   455     004E                     ___flmul@temp:
   456                           
   457                           ; 2 bytes @ 0x2E
   458     004E                     	ds	2
   459     0050                     ?___fltol:
   460     0050                     ___fltol@f1:	
   461                           ; 4 bytes @ 0x30
   462                           
   463                           
   464                           ; 4 bytes @ 0x30
   465     0050                     	ds	4
   466     0054                     ??___fltol:
   467                           
   468                           ; 1 bytes @ 0x34
   469     0054                     	ds	4
   470     0058                     ___fltol@sign1:
   471                           
   472                           ; 1 bytes @ 0x38
   473     0058                     	ds	1
   474     0059                     ___fltol@exp1:
   475                           
   476                           ; 1 bytes @ 0x39
   477     0059                     	ds	1
   478     005A                     ?_display:
   479     005A                     display@voltage:	
   480                           ; 1 bytes @ 0x3A
   481                           
   482                           
   483                           ; 4 bytes @ 0x3A
   484     005A                     	ds	4
   485     005E                     ??_display:
   486                           
   487                           ; 1 bytes @ 0x3E
   488     005E                     	ds	2
   489     0060                     display@decimal_part:
   490                           
   491                           ; 2 bytes @ 0x40
   492     0060                     	ds	2
   493     0062                     display@integer_part:
   494                           
   495                           ; 2 bytes @ 0x42
   496     0062                     	ds	2
   497     0064                     display@i:
   498                           
   499                           ; 2 bytes @ 0x44
   500     0064                     	ds	2
   501     0066                     ??_main:
   502                           
   503                           ; 1 bytes @ 0x46
   504     0066                     	ds	4
   505     006A                     main@voltage:
   506                           
   507                           ; 4 bytes @ 0x4A
   508     006A                     	ds	4
   509     006E                     main@value_adc:
   510                           
   511                           ; 2 bytes @ 0x4E
   512     006E                     	ds	2
   513                           
   514                           	psect	maintext
   515     0F97                     __pmaintext:	
   516 ;;
   517 ;;Main: autosize = 0, tempsize = 4, incstack = 0, save=0
   518 ;;
   519 ;; *************** function _main *****************
   520 ;; Defined at:
   521 ;;		line 52 in file "bienap.c"
   522 ;; Parameters:    Size  Location     Type
   523 ;;		None
   524 ;; Auto vars:     Size  Location     Type
   525 ;;  voltage         4   74[BANK0 ] float 
   526 ;;  value_adc       2   78[BANK0 ] unsigned int 
   527 ;; Return value:  Size  Location     Type
   528 ;;                  1    wreg      void 
   529 ;; Registers used:
   530 ;;		wreg, fsr0l, fsr0h, status,2, status,0, btemp+1, pclath, cstack
   531 ;; Tracked objects:
   532 ;;		On entry : B00/0
   533 ;;		On exit  : 0/0
   534 ;;		Unchanged: 0/0
   535 ;; Data sizes:     COMMON   BANK0   BANK1   BANK3   BANK2
   536 ;;      Params:         0       0       0       0       0
   537 ;;      Locals:         0       6       0       0       0
   538 ;;      Temps:          0       4       0       0       0
   539 ;;      Totals:         0      10       0       0       0
   540 ;;Total ram usage:       10 bytes
   541 ;; Hardware stack levels required when called: 3
   542 ;; This function calls:
   543 ;;		_ADC_Init
   544 ;;		_ADC_Read
   545 ;;		___lwdiv
   546 ;;		___wmul
   547 ;;		___xxtofl
   548 ;;		_display
   549 ;; This function is called by:
   550 ;;		Startup code after reset
   551 ;; This function uses a non-reentrant model
   552 ;;
   553                           
   554     0F97                     _main:	
   555                           ;psect for function _main
   556                           
   557     0F97                     l1715:	
   558                           ;incstack = 0
   559                           ; Regs used in _main: [wreg-fsr0h+status,2+status,0+btemp+1+pclath+cstack]
   560                           
   561                           
   562                           ;bienap.c: 53:     TRISB = 0x00;
   563     0F97  1683               	bsf	3,5	;RP0=1, select bank1
   564     0F98  1303               	bcf	3,6	;RP1=0, select bank1
   565     0F99  0186               	clrf	6	;volatile
   566                           
   567                           ;bienap.c: 54:     PORTB = 0x00;
   568     0F9A  1283               	bcf	3,5	;RP0=0, select bank0
   569     0F9B  1303               	bcf	3,6	;RP1=0, select bank0
   570     0F9C  0186               	clrf	6	;volatile
   571                           
   572                           ;bienap.c: 55:     TRISC = 0x00;
   573     0F9D  1683               	bsf	3,5	;RP0=1, select bank1
   574     0F9E  1303               	bcf	3,6	;RP1=0, select bank1
   575     0F9F  0187               	clrf	7	;volatile
   576     0FA0                     l1717:
   577                           
   578                           ;bienap.c: 56:     TRISA = 0xFF;
   579     0FA0  30FF               	movlw	255
   580     0FA1  0085               	movwf	5	;volatile
   581     0FA2                     l1719:
   582                           
   583                           ;bienap.c: 57:     ADC_Init();
   584     0FA2  120A  118A  2009  120A  158A  	fcall	_ADC_Init
   585     0FA7                     l1721:
   586                           
   587                           ;bienap.c: 63:         value_adc = ADC_Read(0);
   588     0FA7  3000               	movlw	0
   589     0FA8  00F0               	movwf	ADC_Read@channel
   590     0FA9  00F1               	movwf	ADC_Read@channel+1
   591     0FAA  120A  158A  275D  120A  158A  	fcall	_ADC_Read
   592     0FAF  0871               	movf	?_ADC_Read+1,w
   593     0FB0  1283               	bcf	3,5	;RP0=0, select bank0
   594     0FB1  1303               	bcf	3,6	;RP1=0, select bank0
   595     0FB2  00EF               	movwf	main@value_adc+1
   596     0FB3  0870               	movf	?_ADC_Read,w
   597     0FB4  00EE               	movwf	main@value_adc
   598     0FB5                     l1723:
   599                           
   600                           ;bienap.c: 64:         voltage = (value_adc * 1023) / 50;
   601     0FB5  30FF               	movlw	255
   602     0FB6  00F2               	movwf	___wmul@multiplicand
   603     0FB7  3003               	movlw	3
   604     0FB8  00F3               	movwf	___wmul@multiplicand+1
   605     0FB9  086F               	movf	main@value_adc+1,w
   606     0FBA  00F1               	movwf	___wmul@multiplier+1
   607     0FBB  086E               	movf	main@value_adc,w
   608     0FBC  00F0               	movwf	___wmul@multiplier
   609     0FBD  120A  158A  2711  120A  158A  	fcall	___wmul
   610     0FC2  0871               	movf	?___wmul+1,w
   611     0FC3  00F9               	movwf	___lwdiv@dividend+1
   612     0FC4  0870               	movf	?___wmul,w
   613     0FC5  00F8               	movwf	___lwdiv@dividend
   614     0FC6  3032               	movlw	50
   615     0FC7  00F6               	movwf	___lwdiv@divisor
   616     0FC8  3000               	movlw	0
   617     0FC9  00F7               	movwf	___lwdiv@divisor+1
   618     0FCA  120A  118A  2026  120A  158A  	fcall	___lwdiv
   619     0FCF  0876               	movf	?___lwdiv,w
   620     0FD0  1283               	bcf	3,5	;RP0=0, select bank0
   621     0FD1  1303               	bcf	3,6	;RP1=0, select bank0
   622     0FD2  00E6               	movwf	??_main
   623     0FD3  0877               	movf	?___lwdiv+1,w
   624     0FD4  00E7               	movwf	??_main+1
   625     0FD5  01E8               	clrf	??_main+2
   626     0FD6  01E9               	clrf	??_main+3
   627     0FD7  0869               	movf	??_main+3,w
   628     0FD8  00A3               	movwf	___xxtofl@val+3
   629     0FD9  0868               	movf	??_main+2,w
   630     0FDA  00A2               	movwf	___xxtofl@val+2
   631     0FDB  0867               	movf	??_main+1,w
   632     0FDC  00A1               	movwf	___xxtofl@val+1
   633     0FDD  0866               	movf	??_main,w
   634     0FDE  00A0               	movwf	___xxtofl@val
   635     0FDF  3000               	movlw	0
   636     0FE0  120A  118A  218B  120A  158A  	fcall	___xxtofl
   637     0FE5  1283               	bcf	3,5	;RP0=0, select bank0
   638     0FE6  1303               	bcf	3,6	;RP1=0, select bank0
   639     0FE7  0823               	movf	?___xxtofl+3,w
   640     0FE8  00ED               	movwf	main@voltage+3
   641     0FE9  0822               	movf	?___xxtofl+2,w
   642     0FEA  00EC               	movwf	main@voltage+2
   643     0FEB  0821               	movf	?___xxtofl+1,w
   644     0FEC  00EB               	movwf	main@voltage+1
   645     0FED  0820               	movf	?___xxtofl,w
   646     0FEE  00EA               	movwf	main@voltage
   647     0FEF                     l1725:
   648                           
   649                           ;bienap.c: 67:         display(voltage);
   650     0FEF  086D               	movf	main@voltage+3,w
   651     0FF0  00DD               	movwf	display@voltage+3
   652     0FF1  086C               	movf	main@voltage+2,w
   653     0FF2  00DC               	movwf	display@voltage+2
   654     0FF3  086B               	movf	main@voltage+1,w
   655     0FF4  00DB               	movwf	display@voltage+1
   656     0FF5  086A               	movf	main@voltage,w
   657     0FF6  00DA               	movwf	display@voltage
   658     0FF7  120A  118A  20E2  120A  158A  	fcall	_display
   659     0FFC  2FA7               	goto	l1721
   660     0FFD  120A  118A  2800   	ljmp	start
   661     1000                     __end_of_main:
   662                           
   663                           	psect	text1
   664     00E2                     __ptext1:	
   665 ;; *************** function _display *****************
   666 ;; Defined at:
   667 ;;		line 33 in file "bienap.c"
   668 ;; Parameters:    Size  Location     Type
   669 ;;  voltage         4   58[BANK0 ] float 
   670 ;; Auto vars:     Size  Location     Type
   671 ;;  i               2   68[BANK0 ] int 
   672 ;;  integer_part    2   66[BANK0 ] int 
   673 ;;  decimal_part    2   64[BANK0 ] int 
   674 ;; Return value:  Size  Location     Type
   675 ;;                  1    wreg      void 
   676 ;; Registers used:
   677 ;;		wreg, fsr0l, fsr0h, status,2, status,0, btemp+1, pclath, cstack
   678 ;; Tracked objects:
   679 ;;		On entry : 0/0
   680 ;;		On exit  : 0/0
   681 ;;		Unchanged: 0/0
   682 ;; Data sizes:     COMMON   BANK0   BANK1   BANK3   BANK2
   683 ;;      Params:         0       4       0       0       0
   684 ;;      Locals:         0       6       0       0       0
   685 ;;      Temps:          0       2       0       0       0
   686 ;;      Totals:         0      12       0       0       0
   687 ;;Total ram usage:       12 bytes
   688 ;; Hardware stack levels used: 1
   689 ;; Hardware stack levels required when called: 2
   690 ;; This function calls:
   691 ;;		___flmul
   692 ;;		___flsub
   693 ;;		___fltol
   694 ;;		___xxtofl
   695 ;; This function is called by:
   696 ;;		_main
   697 ;; This function uses a non-reentrant model
   698 ;;
   699                           
   700     00E2                     _display:	
   701                           ;psect for function _display
   702                           
   703     00E2                     l1651:	
   704                           ;incstack = 0
   705                           ; Regs used in _display: [wreg-fsr0h+status,2+status,0+btemp+1+pclath+cstack]
   706                           
   707                           
   708                           ;bienap.c: 34:     int integer_part, decimal_part;;bienap.c: 35:     int i;;bienap.c: 37
      +                          :     integer_part = (int) voltage;
   709     00E2  1283               	bcf	3,5	;RP0=0, select bank0
   710     00E3  1303               	bcf	3,6	;RP1=0, select bank0
   711     00E4  085D               	movf	display@voltage+3,w
   712     00E5  00D3               	movwf	___fltol@f1+3
   713     00E6  085C               	movf	display@voltage+2,w
   714     00E7  00D2               	movwf	___fltol@f1+2
   715     00E8  085B               	movf	display@voltage+1,w
   716     00E9  00D1               	movwf	___fltol@f1+1
   717     00EA  085A               	movf	display@voltage,w
   718     00EB  00D0               	movwf	___fltol@f1
   719     00EC  120A  118A  206A  120A  118A  	fcall	___fltol
   720     00F1  1283               	bcf	3,5	;RP0=0, select bank0
   721     00F2  1303               	bcf	3,6	;RP1=0, select bank0
   722     00F3  0851               	movf	?___fltol+1,w
   723     00F4  00E3               	movwf	display@integer_part+1
   724     00F5  0850               	movf	?___fltol,w
   725     00F6  00E2               	movwf	display@integer_part
   726                           
   727                           ;bienap.c: 38:     decimal_part = (int) ((voltage - integer_part) * 10);
   728     00F7  085D               	movf	display@voltage+3,w
   729     00F8  00B5               	movwf	___flsub@b+3
   730     00F9  085C               	movf	display@voltage+2,w
   731     00FA  00B4               	movwf	___flsub@b+2
   732     00FB  085B               	movf	display@voltage+1,w
   733     00FC  00B3               	movwf	___flsub@b+1
   734     00FD  085A               	movf	display@voltage,w
   735     00FE  00B2               	movwf	___flsub@b
   736     00FF  0862               	movf	display@integer_part,w
   737     0100  00A0               	movwf	___xxtofl@val
   738     0101  0863               	movf	display@integer_part+1,w
   739     0102  00A1               	movwf	___xxtofl@val+1
   740     0103  3000               	movlw	0
   741     0104  1BA1               	btfsc	___xxtofl@val+1,7
   742     0105  30FF               	movlw	255
   743     0106  00A2               	movwf	___xxtofl@val+2
   744     0107  00A3               	movwf	___xxtofl@val+3
   745     0108  3001               	movlw	1
   746     0109  120A  118A  218B  120A  118A  	fcall	___xxtofl
   747     010E  1283               	bcf	3,5	;RP0=0, select bank0
   748     010F  1303               	bcf	3,6	;RP1=0, select bank0
   749     0110  0823               	movf	?___xxtofl+3,w
   750     0111  00B1               	movwf	___flsub@a+3
   751     0112  0822               	movf	?___xxtofl+2,w
   752     0113  00B0               	movwf	___flsub@a+2
   753     0114  0821               	movf	?___xxtofl+1,w
   754     0115  00AF               	movwf	___flsub@a+1
   755     0116  0820               	movf	?___xxtofl,w
   756     0117  00AE               	movwf	___flsub@a
   757     0118  120A  158A  26ED  120A  118A  	fcall	___flsub
   758     011D  1283               	bcf	3,5	;RP0=0, select bank0
   759     011E  1303               	bcf	3,6	;RP1=0, select bank0
   760     011F  0831               	movf	?___flsub+3,w
   761     0120  00BD               	movwf	___flmul@a+3
   762     0121  0830               	movf	?___flsub+2,w
   763     0122  00BC               	movwf	___flmul@a+2
   764     0123  082F               	movf	?___flsub+1,w
   765     0124  00BB               	movwf	___flmul@a+1
   766     0125  082E               	movf	?___flsub,w
   767     0126  00BA               	movwf	___flmul@a
   768     0127  3041               	movlw	65
   769     0128  00B9               	movwf	___flmul@b+3
   770     0129  3020               	movlw	32
   771     012A  00B8               	movwf	___flmul@b+2
   772     012B  3000               	movlw	0
   773     012C  00B7               	movwf	___flmul@b+1
   774     012D  3000               	movlw	0
   775     012E  00B6               	movwf	___flmul@b
   776     012F  120A  118A  24A9  120A  118A  	fcall	___flmul
   777     0134  1283               	bcf	3,5	;RP0=0, select bank0
   778     0135  1303               	bcf	3,6	;RP1=0, select bank0
   779     0136  0839               	movf	?___flmul+3,w
   780     0137  00D3               	movwf	___fltol@f1+3
   781     0138  0838               	movf	?___flmul+2,w
   782     0139  00D2               	movwf	___fltol@f1+2
   783     013A  0837               	movf	?___flmul+1,w
   784     013B  00D1               	movwf	___fltol@f1+1
   785     013C  0836               	movf	?___flmul,w
   786     013D  00D0               	movwf	___fltol@f1
   787     013E  120A  118A  206A  120A  118A  	fcall	___fltol
   788     0143  1283               	bcf	3,5	;RP0=0, select bank0
   789     0144  1303               	bcf	3,6	;RP1=0, select bank0
   790     0145  0851               	movf	?___fltol+1,w
   791     0146  00E1               	movwf	display@decimal_part+1
   792     0147  0850               	movf	?___fltol,w
   793     0148  00E0               	movwf	display@decimal_part
   794     0149                     l1653:
   795                           
   796                           ;bienap.c: 40:     for (i = 0; i < 125; i++) {
   797     0149  01E4               	clrf	display@i
   798     014A  01E5               	clrf	display@i+1
   799     014B                     l1659:
   800                           
   801                           ;bienap.c: 41:         PORTB = digital[integer_part];
   802     014B  1283               	bcf	3,5	;RP0=0, select bank0
   803     014C  1303               	bcf	3,6	;RP1=0, select bank0
   804     014D  0862               	movf	display@integer_part,w
   805     014E  3EAA               	addlw	(low (_digital| 0))& (0+255)
   806     014F  0084               	movwf	4
   807     0150  1383               	bcf	3,7	;select IRP bank1
   808     0151  0800               	movf	0,w
   809     0152  0086               	movwf	6	;volatile
   810     0153                     l1661:
   811                           
   812                           ;bienap.c: 42:         RC0 = 1;
   813     0153  1407               	bsf	7,0	;volatile
   814     0154                     l1663:
   815                           
   816                           ;bienap.c: 43:         _delay((unsigned long)((5)*(20000000/4000.0)));
   817     0154  3021               	movlw	33
   818     0155  1283               	bcf	3,5	;RP0=0, select bank0
   819     0156  1303               	bcf	3,6	;RP1=0, select bank0
   820     0157  00DF               	movwf	??_display+1
   821     0158  3075               	movlw	117
   822     0159  00DE               	movwf	??_display
   823     015A                     u2517:
   824     015A  0BDE               	decfsz	??_display,f
   825     015B  295A               	goto	u2517
   826     015C  0BDF               	decfsz	??_display+1,f
   827     015D  295A               	goto	u2517
   828     015E  295F               	nop2
   829     015F                     l1665:
   830                           
   831                           ;bienap.c: 44:         RC0 = 0;
   832     015F  1283               	bcf	3,5	;RP0=0, select bank0
   833     0160  1303               	bcf	3,6	;RP1=0, select bank0
   834     0161  1007               	bcf	7,0	;volatile
   835     0162                     l1667:
   836                           
   837                           ;bienap.c: 45:         PORTB = digital[decimal_part];
   838     0162  0860               	movf	display@decimal_part,w
   839     0163  3EAA               	addlw	(low (_digital| 0))& (0+255)
   840     0164  0084               	movwf	4
   841     0165  1383               	bcf	3,7	;select IRP bank1
   842     0166  0800               	movf	0,w
   843     0167  0086               	movwf	6	;volatile
   844     0168                     l1669:
   845                           
   846                           ;bienap.c: 46:         RC1 = 1;
   847     0168  1487               	bsf	7,1	;volatile
   848                           
   849                           ;bienap.c: 47:         _delay((unsigned long)((5)*(20000000/4000.0)));
   850     0169  3021               	movlw	33
   851     016A  1283               	bcf	3,5	;RP0=0, select bank0
   852     016B  1303               	bcf	3,6	;RP1=0, select bank0
   853     016C  00DF               	movwf	??_display+1
   854     016D  3075               	movlw	117
   855     016E  00DE               	movwf	??_display
   856     016F                     u2527:
   857     016F  0BDE               	decfsz	??_display,f
   858     0170  296F               	goto	u2527
   859     0171  0BDF               	decfsz	??_display+1,f
   860     0172  296F               	goto	u2527
   861     0173  2974               	nop2
   862     0174                     l1671:
   863                           
   864                           ;bienap.c: 48:         RC1 = 0;
   865     0174  1283               	bcf	3,5	;RP0=0, select bank0
   866     0175  1303               	bcf	3,6	;RP1=0, select bank0
   867     0176  1087               	bcf	7,1	;volatile
   868                           
   869                           ;bienap.c: 49:     }
   870     0177  3001               	movlw	1
   871     0178  07E4               	addwf	display@i,f
   872     0179  1803               	skipnc
   873     017A  0AE5               	incf	display@i+1,f
   874     017B  3000               	movlw	0
   875     017C  07E5               	addwf	display@i+1,f
   876     017D                     l1673:
   877     017D  0865               	movf	display@i+1,w
   878     017E  3A80               	xorlw	128
   879     017F  00FF               	movwf	btemp+1
   880     0180  3080               	movlw	128
   881     0181  027F               	subwf	btemp+1,w
   882     0182  1D03               	skipz
   883     0183  2986               	goto	u2395
   884     0184  307D               	movlw	125
   885     0185  0264               	subwf	display@i,w
   886     0186                     u2395:
   887     0186  1C03               	skipc
   888     0187  2989               	goto	u2391
   889     0188  298A               	goto	u2390
   890     0189                     u2391:
   891     0189  294B               	goto	l1659
   892     018A                     u2390:
   893     018A                     l43:
   894     018A  0008               	return
   895     018B                     __end_of_display:
   896                           
   897                           	psect	text2
   898     018B                     __ptext2:	
   899 ;; *************** function ___xxtofl *****************
   900 ;; Defined at:
   901 ;;		line 10 in file "C:\Program Files\Microchip\xc8\v2.41\pic\sources\c90\common\xxtofl.c"
   902 ;; Parameters:    Size  Location     Type
   903 ;;  sign            1    wreg     unsigned char 
   904 ;;  val             4    0[BANK0 ] long 
   905 ;; Auto vars:     Size  Location     Type
   906 ;;  sign            1    8[BANK0 ] unsigned char 
   907 ;;  arg             4   10[BANK0 ] unsigned long 
   908 ;;  exp             1    9[BANK0 ] unsigned char 
   909 ;; Return value:  Size  Location     Type
   910 ;;                  4    0[BANK0 ] unsigned char 
   911 ;; Registers used:
   912 ;;		wreg, status,2, status,0, btemp+1
   913 ;; Tracked objects:
   914 ;;		On entry : 0/0
   915 ;;		On exit  : 0/0
   916 ;;		Unchanged: 0/0
   917 ;; Data sizes:     COMMON   BANK0   BANK1   BANK3   BANK2
   918 ;;      Params:         0       4       0       0       0
   919 ;;      Locals:         0       6       0       0       0
   920 ;;      Temps:          0       4       0       0       0
   921 ;;      Totals:         0      14       0       0       0
   922 ;;Total ram usage:       14 bytes
   923 ;; Hardware stack levels used: 1
   924 ;; This function calls:
   925 ;;		Nothing
   926 ;; This function is called by:
   927 ;;		_display
   928 ;;		_main
   929 ;; This function uses a non-reentrant model
   930 ;;
   931                           
   932     018B                     ___xxtofl:	
   933                           ;psect for function ___xxtofl
   934                           
   935                           
   936                           ;incstack = 0
   937                           ; Regs used in ___xxtofl: [wreg+status,2+status,0+btemp+1]
   938                           ;___xxtofl@sign stored from wreg
   939     018B  1283               	bcf	3,5	;RP0=0, select bank0
   940     018C  1303               	bcf	3,6	;RP1=0, select bank0
   941     018D  00A8               	movwf	___xxtofl@sign
   942     018E                     l1585:
   943     018E  0828               	movf	___xxtofl@sign,w
   944     018F  1903               	btfsc	3,2
   945     0190  2992               	goto	u2221
   946     0191  2993               	goto	u2220
   947     0192                     u2221:
   948     0192  29A7               	goto	l1591
   949     0193                     u2220:
   950     0193                     l1587:
   951     0193  1FA3               	btfss	___xxtofl@val+3,7
   952     0194  2996               	goto	u2231
   953     0195  2997               	goto	u2230
   954     0196                     u2231:
   955     0196  29A7               	goto	l1591
   956     0197                     u2230:
   957     0197                     l1589:
   958     0197  0920               	comf	___xxtofl@val,w
   959     0198  00AA               	movwf	___xxtofl@arg
   960     0199  0921               	comf	___xxtofl@val+1,w
   961     019A  00AB               	movwf	___xxtofl@arg+1
   962     019B  0922               	comf	___xxtofl@val+2,w
   963     019C  00AC               	movwf	___xxtofl@arg+2
   964     019D  0923               	comf	___xxtofl@val+3,w
   965     019E  00AD               	movwf	___xxtofl@arg+3
   966     019F  0AAA               	incf	___xxtofl@arg,f
   967     01A0  1903               	skipnz
   968     01A1  0AAB               	incf	___xxtofl@arg+1,f
   969     01A2  1903               	skipnz
   970     01A3  0AAC               	incf	___xxtofl@arg+2,f
   971     01A4  1903               	skipnz
   972     01A5  0AAD               	incf	___xxtofl@arg+3,f
   973     01A6  29AF               	goto	l570
   974     01A7                     l1591:
   975     01A7  0823               	movf	___xxtofl@val+3,w
   976     01A8  00AD               	movwf	___xxtofl@arg+3
   977     01A9  0822               	movf	___xxtofl@val+2,w
   978     01AA  00AC               	movwf	___xxtofl@arg+2
   979     01AB  0821               	movf	___xxtofl@val+1,w
   980     01AC  00AB               	movwf	___xxtofl@arg+1
   981     01AD  0820               	movf	___xxtofl@val,w
   982     01AE  00AA               	movwf	___xxtofl@arg
   983     01AF                     l570:
   984     01AF  0823               	movf	___xxtofl@val+3,w
   985     01B0  0422               	iorwf	___xxtofl@val+2,w
   986     01B1  0421               	iorwf	___xxtofl@val+1,w
   987     01B2  0420               	iorwf	___xxtofl@val,w
   988     01B3  1D03               	skipz
   989     01B4  29B6               	goto	u2241
   990     01B5  29B7               	goto	u2240
   991     01B6                     u2241:
   992     01B6  29C0               	goto	l1597
   993     01B7                     u2240:
   994     01B7                     l1593:
   995     01B7  3000               	movlw	0
   996     01B8  00A3               	movwf	?___xxtofl+3
   997     01B9  3000               	movlw	0
   998     01BA  00A2               	movwf	?___xxtofl+2
   999     01BB  3000               	movlw	0
  1000     01BC  00A1               	movwf	?___xxtofl+1
  1001     01BD  3000               	movlw	0
  1002     01BE  00A0               	movwf	?___xxtofl
  1003     01BF  2A44               	goto	l572
  1004     01C0                     l1597:
  1005     01C0  3096               	movlw	150
  1006     01C1  00A9               	movwf	___xxtofl@exp
  1007     01C2  29D0               	goto	l1603
  1008     01C3                     l1599:
  1009     01C3  3001               	movlw	1
  1010     01C4  00FF               	movwf	btemp+1
  1011     01C5  087F               	movf	btemp+1,w
  1012     01C6  07A9               	addwf	___xxtofl@exp,f
  1013     01C7                     l1601:
  1014     01C7  3001               	movlw	1
  1015     01C8                     u2255:
  1016     01C8  1003               	clrc
  1017     01C9  0CAD               	rrf	___xxtofl@arg+3,f
  1018     01CA  0CAC               	rrf	___xxtofl@arg+2,f
  1019     01CB  0CAB               	rrf	___xxtofl@arg+1,f
  1020     01CC  0CAA               	rrf	___xxtofl@arg,f
  1021     01CD  3EFF               	addlw	-1
  1022     01CE  1D03               	skipz
  1023     01CF  29C8               	goto	u2255
  1024     01D0                     l1603:
  1025     01D0  30FE               	movlw	254
  1026     01D1  052D               	andwf	___xxtofl@arg+3,w
  1027     01D2  1D03               	btfss	3,2
  1028     01D3  29D5               	goto	u2261
  1029     01D4  29D6               	goto	u2260
  1030     01D5                     u2261:
  1031     01D5  29C3               	goto	l1599
  1032     01D6                     u2260:
  1033     01D6  29F2               	goto	l1611
  1034     01D7                     l1605:
  1035     01D7  3001               	movlw	1
  1036     01D8  00FF               	movwf	btemp+1
  1037     01D9  087F               	movf	btemp+1,w
  1038     01DA  07A9               	addwf	___xxtofl@exp,f
  1039     01DB                     l1607:
  1040     01DB  3001               	movlw	1
  1041     01DC  07AA               	addwf	___xxtofl@arg,f
  1042     01DD  3000               	movlw	0
  1043     01DE  1803               	skipnc
  1044     01DF  3001               	movlw	1
  1045     01E0  07AB               	addwf	___xxtofl@arg+1,f
  1046     01E1  3000               	movlw	0
  1047     01E2  1803               	skipnc
  1048     01E3  3001               	movlw	1
  1049     01E4  07AC               	addwf	___xxtofl@arg+2,f
  1050     01E5  3000               	movlw	0
  1051     01E6  1803               	skipnc
  1052     01E7  3001               	movlw	1
  1053     01E8  07AD               	addwf	___xxtofl@arg+3,f
  1054     01E9                     l1609:
  1055     01E9  3001               	movlw	1
  1056     01EA                     u2275:
  1057     01EA  1003               	clrc
  1058     01EB  0CAD               	rrf	___xxtofl@arg+3,f
  1059     01EC  0CAC               	rrf	___xxtofl@arg+2,f
  1060     01ED  0CAB               	rrf	___xxtofl@arg+1,f
  1061     01EE  0CAA               	rrf	___xxtofl@arg,f
  1062     01EF  3EFF               	addlw	-1
  1063     01F0  1D03               	skipz
  1064     01F1  29EA               	goto	u2275
  1065     01F2                     l1611:
  1066     01F2  30FF               	movlw	255
  1067     01F3  052D               	andwf	___xxtofl@arg+3,w
  1068     01F4  1D03               	btfss	3,2
  1069     01F5  29F7               	goto	u2281
  1070     01F6  29F8               	goto	u2280
  1071     01F7                     u2281:
  1072     01F7  29D7               	goto	l1605
  1073     01F8                     u2280:
  1074     01F8  2A04               	goto	l1615
  1075     01F9                     l1613:
  1076     01F9  3001               	movlw	1
  1077     01FA  02A9               	subwf	___xxtofl@exp,f
  1078     01FB  3001               	movlw	1
  1079     01FC  00A4               	movwf	??___xxtofl
  1080     01FD                     u2295:
  1081     01FD  1003               	clrc
  1082     01FE  0DAA               	rlf	___xxtofl@arg,f
  1083     01FF  0DAB               	rlf	___xxtofl@arg+1,f
  1084     0200  0DAC               	rlf	___xxtofl@arg+2,f
  1085     0201  0DAD               	rlf	___xxtofl@arg+3,f
  1086     0202  0BA4               	decfsz	??___xxtofl,f
  1087     0203  29FD               	goto	u2295
  1088     0204                     l1615:
  1089     0204  1BAC               	btfsc	___xxtofl@arg+2,7
  1090     0205  2A07               	goto	u2301
  1091     0206  2A08               	goto	u2300
  1092     0207                     u2301:
  1093     0207  2A0E               	goto	l583
  1094     0208                     u2300:
  1095     0208                     l1617:
  1096     0208  3002               	movlw	2
  1097     0209  0229               	subwf	___xxtofl@exp,w
  1098     020A  1803               	skipnc
  1099     020B  2A0D               	goto	u2311
  1100     020C  2A0E               	goto	u2310
  1101     020D                     u2311:
  1102     020D  29F9               	goto	l1613
  1103     020E                     u2310:
  1104     020E                     l583:
  1105     020E  1829               	btfsc	___xxtofl@exp,0
  1106     020F  2A11               	goto	u2321
  1107     0210  2A12               	goto	u2320
  1108     0211                     u2321:
  1109     0211  2A1A               	goto	l584
  1110     0212                     u2320:
  1111     0212                     l1619:
  1112     0212  30FF               	movlw	255
  1113     0213  05AA               	andwf	___xxtofl@arg,f
  1114     0214  30FF               	movlw	255
  1115     0215  05AB               	andwf	___xxtofl@arg+1,f
  1116     0216  307F               	movlw	127
  1117     0217  05AC               	andwf	___xxtofl@arg+2,f
  1118     0218  30FF               	movlw	255
  1119     0219  05AD               	andwf	___xxtofl@arg+3,f
  1120     021A                     l584:
  1121     021A  1003               	clrc
  1122     021B  0CA9               	rrf	___xxtofl@exp,f
  1123     021C                     l1621:
  1124     021C  0829               	movf	___xxtofl@exp,w
  1125     021D  00A4               	movwf	??___xxtofl
  1126     021E  01A5               	clrf	??___xxtofl+1
  1127     021F  01A6               	clrf	??___xxtofl+2
  1128     0220  01A7               	clrf	??___xxtofl+3
  1129     0221  3018               	movlw	24
  1130     0222                     u2335:
  1131     0222  1003               	clrc
  1132     0223  0DA4               	rlf	??___xxtofl,f
  1133     0224  0DA5               	rlf	??___xxtofl+1,f
  1134     0225  0DA6               	rlf	??___xxtofl+2,f
  1135     0226  0DA7               	rlf	??___xxtofl+3,f
  1136     0227                     u2330:
  1137     0227  3EFF               	addlw	-1
  1138     0228  1D03               	skipz
  1139     0229  2A22               	goto	u2335
  1140     022A  0824               	movf	??___xxtofl,w
  1141     022B  04AA               	iorwf	___xxtofl@arg,f
  1142     022C  0825               	movf	??___xxtofl+1,w
  1143     022D  04AB               	iorwf	___xxtofl@arg+1,f
  1144     022E  0826               	movf	??___xxtofl+2,w
  1145     022F  04AC               	iorwf	___xxtofl@arg+2,f
  1146     0230  0827               	movf	??___xxtofl+3,w
  1147     0231  04AD               	iorwf	___xxtofl@arg+3,f
  1148     0232                     l1623:
  1149     0232  0828               	movf	___xxtofl@sign,w
  1150     0233  1903               	btfsc	3,2
  1151     0234  2A36               	goto	u2341
  1152     0235  2A37               	goto	u2340
  1153     0236                     u2341:
  1154     0236  2A3C               	goto	l1629
  1155     0237                     u2340:
  1156     0237                     l1625:
  1157     0237  1FA3               	btfss	___xxtofl@val+3,7
  1158     0238  2A3A               	goto	u2351
  1159     0239  2A3B               	goto	u2350
  1160     023A                     u2351:
  1161     023A  2A3C               	goto	l1629
  1162     023B                     u2350:
  1163     023B                     l1627:
  1164     023B  17AD               	bsf	___xxtofl@arg+3,7
  1165     023C                     l1629:
  1166     023C  082D               	movf	___xxtofl@arg+3,w
  1167     023D  00A3               	movwf	?___xxtofl+3
  1168     023E  082C               	movf	___xxtofl@arg+2,w
  1169     023F  00A2               	movwf	?___xxtofl+2
  1170     0240  082B               	movf	___xxtofl@arg+1,w
  1171     0241  00A1               	movwf	?___xxtofl+1
  1172     0242  082A               	movf	___xxtofl@arg,w
  1173     0243  00A0               	movwf	?___xxtofl
  1174     0244                     l572:
  1175     0244  0008               	return
  1176     0245                     __end_of___xxtofl:
  1177                           
  1178                           	psect	text3
  1179     006A                     __ptext3:	
  1180 ;; *************** function ___fltol *****************
  1181 ;; Defined at:
  1182 ;;		line 43 in file "C:\Program Files\Microchip\xc8\v2.41\pic\sources\c90\common\fltol.c"
  1183 ;; Parameters:    Size  Location     Type
  1184 ;;  f1              4   48[BANK0 ] unsigned char 
  1185 ;; Auto vars:     Size  Location     Type
  1186 ;;  exp1            1   57[BANK0 ] unsigned char 
  1187 ;;  sign1           1   56[BANK0 ] unsigned char 
  1188 ;; Return value:  Size  Location     Type
  1189 ;;                  4   48[BANK0 ] long 
  1190 ;; Registers used:
  1191 ;;		wreg, status,2, status,0, btemp+1
  1192 ;; Tracked objects:
  1193 ;;		On entry : 0/0
  1194 ;;		On exit  : 0/0
  1195 ;;		Unchanged: 0/0
  1196 ;; Data sizes:     COMMON   BANK0   BANK1   BANK3   BANK2
  1197 ;;      Params:         0       4       0       0       0
  1198 ;;      Locals:         0       2       0       0       0
  1199 ;;      Temps:          0       4       0       0       0
  1200 ;;      Totals:         0      10       0       0       0
  1201 ;;Total ram usage:       10 bytes
  1202 ;; Hardware stack levels used: 1
  1203 ;; This function calls:
  1204 ;;		Nothing
  1205 ;; This function is called by:
  1206 ;;		_display
  1207 ;; This function uses a non-reentrant model
  1208 ;;
  1209                           
  1210     006A                     ___fltol:	
  1211                           ;psect for function ___fltol
  1212                           
  1213     006A                     l1399:	
  1214                           ;incstack = 0
  1215                           ; Regs used in ___fltol: [wreg+status,2+status,0+btemp+1]
  1216                           
  1217     006A  1003               	clrc
  1218     006B  1283               	bcf	3,5	;RP0=0, select bank0
  1219     006C  1303               	bcf	3,6	;RP1=0, select bank0
  1220     006D  0D52               	rlf	___fltol@f1+2,w
  1221     006E  0D53               	rlf	___fltol@f1+3,w
  1222     006F  00D9               	movwf	___fltol@exp1
  1223     0070  0859               	movf	___fltol@exp1,w
  1224     0071  1D03               	btfss	3,2
  1225     0072  2874               	goto	u1751
  1226     0073  2875               	goto	u1750
  1227     0074                     u1751:
  1228     0074  287E               	goto	l1405
  1229     0075                     u1750:
  1230     0075                     l1401:
  1231     0075  3000               	movlw	0
  1232     0076  00D3               	movwf	?___fltol+3
  1233     0077  3000               	movlw	0
  1234     0078  00D2               	movwf	?___fltol+2
  1235     0079  3000               	movlw	0
  1236     007A  00D1               	movwf	?___fltol+1
  1237     007B  3000               	movlw	0
  1238     007C  00D0               	movwf	?___fltol
  1239     007D  28E1               	goto	l323
  1240     007E                     l1405:
  1241     007E  0850               	movf	___fltol@f1,w
  1242     007F  00D4               	movwf	??___fltol
  1243     0080  0851               	movf	___fltol@f1+1,w
  1244     0081  00D5               	movwf	??___fltol+1
  1245     0082  0852               	movf	___fltol@f1+2,w
  1246     0083  00D6               	movwf	??___fltol+2
  1247     0084  0853               	movf	___fltol@f1+3,w
  1248     0085  00D7               	movwf	??___fltol+3
  1249     0086  301F               	movlw	31
  1250     0087                     u1765:
  1251     0087  1003               	clrc
  1252     0088  0CD7               	rrf	??___fltol+3,f
  1253     0089  0CD6               	rrf	??___fltol+2,f
  1254     008A  0CD5               	rrf	??___fltol+1,f
  1255     008B  0CD4               	rrf	??___fltol,f
  1256     008C                     u1760:
  1257     008C  3EFF               	addlw	-1
  1258     008D  1D03               	skipz
  1259     008E  2887               	goto	u1765
  1260     008F  0854               	movf	??___fltol,w
  1261     0090  00D8               	movwf	___fltol@sign1
  1262     0091                     l1407:
  1263     0091  17D2               	bsf	___fltol@f1+2,7
  1264     0092                     l1409:
  1265     0092  30FF               	movlw	255
  1266     0093  05D0               	andwf	___fltol@f1,f
  1267     0094  30FF               	movlw	255
  1268     0095  05D1               	andwf	___fltol@f1+1,f
  1269     0096  30FF               	movlw	255
  1270     0097  05D2               	andwf	___fltol@f1+2,f
  1271     0098  3000               	movlw	0
  1272     0099  05D3               	andwf	___fltol@f1+3,f
  1273     009A                     l1411:
  1274     009A  3096               	movlw	150
  1275     009B  02D9               	subwf	___fltol@exp1,f
  1276     009C                     l1413:
  1277     009C  1FD9               	btfss	___fltol@exp1,7
  1278     009D  289F               	goto	u1771
  1279     009E  28A0               	goto	u1770
  1280     009F                     u1771:
  1281     009F  28BA               	goto	l1425
  1282     00A0                     u1770:
  1283     00A0                     l1415:
  1284     00A0  0859               	movf	___fltol@exp1,w
  1285     00A1  3A80               	xorlw	128
  1286     00A2  3E97               	addlw	151
  1287     00A3  1803               	skipnc
  1288     00A4  28A6               	goto	u1781
  1289     00A5  28A7               	goto	u1780
  1290     00A6                     u1781:
  1291     00A6  28A8               	goto	l1421
  1292     00A7                     u1780:
  1293     00A7  2875               	goto	l1401
  1294     00A8                     l1421:
  1295     00A8  3001               	movlw	1
  1296     00A9                     u1795:
  1297     00A9  1003               	clrc
  1298     00AA  0CD3               	rrf	___fltol@f1+3,f
  1299     00AB  0CD2               	rrf	___fltol@f1+2,f
  1300     00AC  0CD1               	rrf	___fltol@f1+1,f
  1301     00AD  0CD0               	rrf	___fltol@f1,f
  1302     00AE  3EFF               	addlw	-1
  1303     00AF  1D03               	skipz
  1304     00B0  28A9               	goto	u1795
  1305     00B1                     l1423:
  1306     00B1  3001               	movlw	1
  1307     00B2  00FF               	movwf	btemp+1
  1308     00B3  087F               	movf	btemp+1,w
  1309     00B4  07D9               	addwf	___fltol@exp1,f
  1310     00B5  1D03               	btfss	3,2
  1311     00B6  28B8               	goto	u1801
  1312     00B7  28B9               	goto	u1800
  1313     00B8                     u1801:
  1314     00B8  28A8               	goto	l1421
  1315     00B9                     u1800:
  1316     00B9  28D1               	goto	l1433
  1317     00BA                     l1425:
  1318     00BA  3020               	movlw	32
  1319     00BB  0259               	subwf	___fltol@exp1,w
  1320     00BC  1C03               	skipc
  1321     00BD  28BF               	goto	u1811
  1322     00BE  28C0               	goto	u1810
  1323     00BF                     u1811:
  1324     00BF  28CC               	goto	l330
  1325     00C0                     u1810:
  1326     00C0  2875               	goto	l1401
  1327     00C1                     l1431:
  1328     00C1  3001               	movlw	1
  1329     00C2  00D4               	movwf	??___fltol
  1330     00C3                     u1825:
  1331     00C3  1003               	clrc
  1332     00C4  0DD0               	rlf	___fltol@f1,f
  1333     00C5  0DD1               	rlf	___fltol@f1+1,f
  1334     00C6  0DD2               	rlf	___fltol@f1+2,f
  1335     00C7  0DD3               	rlf	___fltol@f1+3,f
  1336     00C8  0BD4               	decfsz	??___fltol,f
  1337     00C9  28C3               	goto	u1825
  1338     00CA  3001               	movlw	1
  1339     00CB  02D9               	subwf	___fltol@exp1,f
  1340     00CC                     l330:
  1341     00CC  0859               	movf	___fltol@exp1,w
  1342     00CD  1D03               	btfss	3,2
  1343     00CE  28D0               	goto	u1831
  1344     00CF  28D1               	goto	u1830
  1345     00D0                     u1831:
  1346     00D0  28C1               	goto	l1431
  1347     00D1                     u1830:
  1348     00D1                     l1433:
  1349     00D1  0858               	movf	___fltol@sign1,w
  1350     00D2  1903               	btfsc	3,2
  1351     00D3  28D5               	goto	u1841
  1352     00D4  28D6               	goto	u1840
  1353     00D5                     u1841:
  1354     00D5  28E1               	goto	l333
  1355     00D6                     u1840:
  1356     00D6                     l1435:
  1357     00D6  09D0               	comf	___fltol@f1,f
  1358     00D7  09D1               	comf	___fltol@f1+1,f
  1359     00D8  09D2               	comf	___fltol@f1+2,f
  1360     00D9  09D3               	comf	___fltol@f1+3,f
  1361     00DA  0AD0               	incf	___fltol@f1,f
  1362     00DB  1903               	skipnz
  1363     00DC  0AD1               	incf	___fltol@f1+1,f
  1364     00DD  1903               	skipnz
  1365     00DE  0AD2               	incf	___fltol@f1+2,f
  1366     00DF  1903               	skipnz
  1367     00E0  0AD3               	incf	___fltol@f1+3,f
  1368     00E1                     l333:
  1369     00E1                     l323:
  1370     00E1  0008               	return
  1371     00E2                     __end_of___fltol:
  1372                           
  1373                           	psect	text4
  1374     0EED                     __ptext4:	
  1375 ;; *************** function ___flsub *****************
  1376 ;; Defined at:
  1377 ;;		line 242 in file "C:\Program Files\Microchip\xc8\v2.41\pic\sources\c90\common\sprcadd.c"
  1378 ;; Parameters:    Size  Location     Type
  1379 ;;  a               4   14[BANK0 ] long 
  1380 ;;  b               4   18[BANK0 ] long 
  1381 ;; Auto vars:     Size  Location     Type
  1382 ;;		None
  1383 ;; Return value:  Size  Location     Type
  1384 ;;                  4   14[BANK0 ] long 
  1385 ;; Registers used:
  1386 ;;		wreg, status,2, status,0, btemp+1, pclath, cstack
  1387 ;; Tracked objects:
  1388 ;;		On entry : 0/0
  1389 ;;		On exit  : 0/0
  1390 ;;		Unchanged: 0/0
  1391 ;; Data sizes:     COMMON   BANK0   BANK1   BANK3   BANK2
  1392 ;;      Params:         0       8       0       0       0
  1393 ;;      Locals:         0       0       0       0       0
  1394 ;;      Temps:          0       0       0       0       0
  1395 ;;      Totals:         0       8       0       0       0
  1396 ;;Total ram usage:        8 bytes
  1397 ;; Hardware stack levels used: 1
  1398 ;; Hardware stack levels required when called: 1
  1399 ;; This function calls:
  1400 ;;		___fladd
  1401 ;; This function is called by:
  1402 ;;		_display
  1403 ;; This function uses a non-reentrant model
  1404 ;;
  1405                           
  1406     0EED                     ___flsub:	
  1407                           ;psect for function ___flsub
  1408                           
  1409     0EED                     l1437:	
  1410                           ;incstack = 0
  1411                           ; Regs used in ___flsub: [wreg+status,2+status,0+btemp+1+pclath+cstack]
  1412                           
  1413     0EED  3080               	movlw	128
  1414     0EEE  1283               	bcf	3,5	;RP0=0, select bank0
  1415     0EEF  1303               	bcf	3,6	;RP1=0, select bank0
  1416     0EF0  06B1               	xorwf	___flsub@a+3,f
  1417     0EF1                     l1439:
  1418     0EF1  0835               	movf	___flsub@b+3,w
  1419     0EF2  00F3               	movwf	___fladd@b+3
  1420     0EF3  0834               	movf	___flsub@b+2,w
  1421     0EF4  00F2               	movwf	___fladd@b+2
  1422     0EF5  0833               	movf	___flsub@b+1,w
  1423     0EF6  00F1               	movwf	___fladd@b+1
  1424     0EF7  0832               	movf	___flsub@b,w
  1425     0EF8  00F0               	movwf	___fladd@b
  1426     0EF9  0831               	movf	___flsub@a+3,w
  1427     0EFA  00F7               	movwf	___fladd@a+3
  1428     0EFB  0830               	movf	___flsub@a+2,w
  1429     0EFC  00F6               	movwf	___fladd@a+2
  1430     0EFD  082F               	movf	___flsub@a+1,w
  1431     0EFE  00F5               	movwf	___fladd@a+1
  1432     0EFF  082E               	movf	___flsub@a,w
  1433     0F00  00F4               	movwf	___fladd@a
  1434     0F01  120A  118A  2245  120A  158A  	fcall	___fladd
  1435     0F06  0873               	movf	?___fladd+3,w
  1436     0F07  1283               	bcf	3,5	;RP0=0, select bank0
  1437     0F08  1303               	bcf	3,6	;RP1=0, select bank0
  1438     0F09  00B1               	movwf	?___flsub+3
  1439     0F0A  0872               	movf	?___fladd+2,w
  1440     0F0B  00B0               	movwf	?___flsub+2
  1441     0F0C  0871               	movf	?___fladd+1,w
  1442     0F0D  00AF               	movwf	?___flsub+1
  1443     0F0E  0870               	movf	?___fladd,w
  1444     0F0F  00AE               	movwf	?___flsub
  1445     0F10                     l476:
  1446     0F10  0008               	return
  1447     0F11                     __end_of___flsub:
  1448                           
  1449                           	psect	text5
  1450     0245                     __ptext5:	
  1451 ;; *************** function ___fladd *****************
  1452 ;; Defined at:
  1453 ;;		line 10 in file "C:\Program Files\Microchip\xc8\v2.41\pic\sources\c90\common\sprcadd.c"
  1454 ;; Parameters:    Size  Location     Type
  1455 ;;  b               4    0[COMMON] long 
  1456 ;;  a               4    4[COMMON] long 
  1457 ;; Auto vars:     Size  Location     Type
  1458 ;;  grs             1   11[COMMON] unsigned char 
  1459 ;;  bexp            1   10[COMMON] unsigned char 
  1460 ;;  aexp            1    9[COMMON] unsigned char 
  1461 ;;  signs           1    8[COMMON] unsigned char 
  1462 ;; Return value:  Size  Location     Type
  1463 ;;                  4    0[COMMON] unsigned char 
  1464 ;; Registers used:
  1465 ;;		wreg, status,2, status,0, btemp+1
  1466 ;; Tracked objects:
  1467 ;;		On entry : 0/0
  1468 ;;		On exit  : 0/0
  1469 ;;		Unchanged: 0/0
  1470 ;; Data sizes:     COMMON   BANK0   BANK1   BANK3   BANK2
  1471 ;;      Params:         8       0       0       0       0
  1472 ;;      Locals:         4       0       0       0       0
  1473 ;;      Temps:          0       8       0       0       0
  1474 ;;      Totals:        12       8       0       0       0
  1475 ;;Total ram usage:       20 bytes
  1476 ;; Hardware stack levels used: 1
  1477 ;; This function calls:
  1478 ;;		Nothing
  1479 ;; This function is called by:
  1480 ;;		___flsub
  1481 ;; This function uses a non-reentrant model
  1482 ;;
  1483                           
  1484     0245                     ___fladd:	
  1485                           ;psect for function ___fladd
  1486                           
  1487     0245                     l1185:	
  1488                           ;incstack = 0
  1489                           ; Regs used in ___fladd: [wreg+status,2+status,0+btemp+1]
  1490                           
  1491     0245  0873               	movf	___fladd@b+3,w
  1492     0246  3980               	andlw	128
  1493     0247  00F8               	movwf	___fladd@signs
  1494     0248                     l1187:
  1495     0248  0873               	movf	___fladd@b+3,w
  1496     0249  1283               	bcf	3,5	;RP0=0, select bank0
  1497     024A  1303               	bcf	3,6	;RP1=0, select bank0
  1498     024B  00A0               	movwf	??___fladd
  1499     024C  0720               	addwf	??___fladd,w
  1500     024D  00FA               	movwf	___fladd@bexp
  1501     024E                     l1189:
  1502     024E  1FF2               	btfss	___fladd@b+2,7
  1503     024F  2A51               	goto	u1261
  1504     0250  2A52               	goto	u1260
  1505     0251                     u1261:
  1506     0251  2A53               	goto	l1193
  1507     0252                     u1260:
  1508     0252                     l1191:
  1509     0252  147A               	bsf	___fladd@bexp,0
  1510     0253                     l1193:
  1511     0253  087A               	movf	___fladd@bexp,w
  1512     0254  1903               	btfsc	3,2
  1513     0255  2A57               	goto	u1271
  1514     0256  2A58               	goto	u1270
  1515     0257                     u1271:
  1516     0257  2A68               	goto	l1203
  1517     0258                     u1270:
  1518     0258                     l1195:
  1519     0258  0A7A               	incf	___fladd@bexp,w
  1520     0259  1D03               	btfss	3,2
  1521     025A  2A5C               	goto	u1281
  1522     025B  2A5D               	goto	u1280
  1523     025C                     u1281:
  1524     025C  2A65               	goto	l1199
  1525     025D                     u1280:
  1526     025D                     l1197:
  1527     025D  3000               	movlw	0
  1528     025E  00F3               	movwf	___fladd@b+3
  1529     025F  3000               	movlw	0
  1530     0260  00F2               	movwf	___fladd@b+2
  1531     0261  3000               	movlw	0
  1532     0262  00F1               	movwf	___fladd@b+1
  1533     0263  3000               	movlw	0
  1534     0264  00F0               	movwf	___fladd@b
  1535     0265                     l1199:
  1536     0265  17F2               	bsf	___fladd@b+2,7
  1537     0266                     l1201:
  1538     0266  01F3               	clrf	___fladd@b+3
  1539     0267  2A70               	goto	l1205
  1540     0268                     l1203:
  1541     0268  3000               	movlw	0
  1542     0269  00F3               	movwf	___fladd@b+3
  1543     026A  3000               	movlw	0
  1544     026B  00F2               	movwf	___fladd@b+2
  1545     026C  3000               	movlw	0
  1546     026D  00F1               	movwf	___fladd@b+1
  1547     026E  3000               	movlw	0
  1548     026F  00F0               	movwf	___fladd@b
  1549     0270                     l1205:
  1550     0270  0877               	movf	___fladd@a+3,w
  1551     0271  3980               	andlw	128
  1552     0272  00F9               	movwf	___fladd@aexp
  1553     0273                     l1207:
  1554     0273  0879               	movf	___fladd@aexp,w
  1555     0274  0678               	xorwf	___fladd@signs,w
  1556     0275  1903               	skipnz
  1557     0276  2A78               	goto	u1291
  1558     0277  2A79               	goto	u1290
  1559     0278                     u1291:
  1560     0278  2A7A               	goto	l1211
  1561     0279                     u1290:
  1562     0279                     l1209:
  1563     0279  1778               	bsf	___fladd@signs,6
  1564     027A                     l1211:
  1565     027A  0877               	movf	___fladd@a+3,w
  1566     027B  00A0               	movwf	??___fladd
  1567     027C  0720               	addwf	??___fladd,w
  1568     027D  00F9               	movwf	___fladd@aexp
  1569     027E                     l1213:
  1570     027E  1FF6               	btfss	___fladd@a+2,7
  1571     027F  2A81               	goto	u1301
  1572     0280  2A82               	goto	u1300
  1573     0281                     u1301:
  1574     0281  2A83               	goto	l1217
  1575     0282                     u1300:
  1576     0282                     l1215:
  1577     0282  1479               	bsf	___fladd@aexp,0
  1578     0283                     l1217:
  1579     0283  0879               	movf	___fladd@aexp,w
  1580     0284  1903               	btfsc	3,2
  1581     0285  2A87               	goto	u1311
  1582     0286  2A88               	goto	u1310
  1583     0287                     u1311:
  1584     0287  2A98               	goto	l1227
  1585     0288                     u1310:
  1586     0288                     l1219:
  1587     0288  0A79               	incf	___fladd@aexp,w
  1588     0289  1D03               	btfss	3,2
  1589     028A  2A8C               	goto	u1321
  1590     028B  2A8D               	goto	u1320
  1591     028C                     u1321:
  1592     028C  2A95               	goto	l1223
  1593     028D                     u1320:
  1594     028D                     l1221:
  1595     028D  3000               	movlw	0
  1596     028E  00F7               	movwf	___fladd@a+3
  1597     028F  3000               	movlw	0
  1598     0290  00F6               	movwf	___fladd@a+2
  1599     0291  3000               	movlw	0
  1600     0292  00F5               	movwf	___fladd@a+1
  1601     0293  3000               	movlw	0
  1602     0294  00F4               	movwf	___fladd@a
  1603     0295                     l1223:
  1604     0295  17F6               	bsf	___fladd@a+2,7
  1605     0296                     l1225:
  1606     0296  01F7               	clrf	___fladd@a+3
  1607     0297  2AA0               	goto	l430
  1608     0298                     l1227:
  1609     0298  3000               	movlw	0
  1610     0299  00F7               	movwf	___fladd@a+3
  1611     029A  3000               	movlw	0
  1612     029B  00F6               	movwf	___fladd@a+2
  1613     029C  3000               	movlw	0
  1614     029D  00F5               	movwf	___fladd@a+1
  1615     029E  3000               	movlw	0
  1616     029F  00F4               	movwf	___fladd@a
  1617     02A0                     l430:
  1618     02A0  087A               	movf	___fladd@bexp,w
  1619     02A1  0279               	subwf	___fladd@aexp,w
  1620     02A2  1803               	skipnc
  1621     02A3  2AA5               	goto	u1331
  1622     02A4  2AA6               	goto	u1330
  1623     02A5                     u1331:
  1624     02A5  2ACC               	goto	l1263
  1625     02A6                     u1330:
  1626     02A6                     l1229:
  1627     02A6  1F78               	btfss	___fladd@signs,6
  1628     02A7  2AA9               	goto	u1341
  1629     02A8  2AAA               	goto	u1340
  1630     02A9                     u1341:
  1631     02A9  2AAE               	goto	l1233
  1632     02AA                     u1340:
  1633     02AA                     l1231:
  1634     02AA  3080               	movlw	128
  1635     02AB  00FF               	movwf	btemp+1
  1636     02AC  087F               	movf	btemp+1,w
  1637     02AD  06F8               	xorwf	___fladd@signs,f
  1638     02AE                     l1233:
  1639     02AE  087A               	movf	___fladd@bexp,w
  1640     02AF  00FB               	movwf	___fladd@grs
  1641     02B0                     l1235:
  1642     02B0  0879               	movf	___fladd@aexp,w
  1643     02B1  00FA               	movwf	___fladd@bexp
  1644     02B2                     l1237:
  1645     02B2  087B               	movf	___fladd@grs,w
  1646     02B3  00F9               	movwf	___fladd@aexp
  1647     02B4                     l1239:
  1648     02B4  0870               	movf	___fladd@b,w
  1649     02B5  00FB               	movwf	___fladd@grs
  1650     02B6                     l1241:
  1651     02B6  0874               	movf	___fladd@a,w
  1652     02B7  00F0               	movwf	___fladd@b
  1653     02B8                     l1243:
  1654     02B8  087B               	movf	___fladd@grs,w
  1655     02B9  00F4               	movwf	___fladd@a
  1656     02BA                     l1245:
  1657     02BA  0871               	movf	___fladd@b+1,w
  1658     02BB  00FB               	movwf	___fladd@grs
  1659     02BC                     l1247:
  1660     02BC  0875               	movf	___fladd@a+1,w
  1661     02BD  00F1               	movwf	___fladd@b+1
  1662     02BE                     l1249:
  1663     02BE  087B               	movf	___fladd@grs,w
  1664     02BF  00F5               	movwf	___fladd@a+1
  1665     02C0                     l1251:
  1666     02C0  0872               	movf	___fladd@b+2,w
  1667     02C1  00FB               	movwf	___fladd@grs
  1668     02C2                     l1253:
  1669     02C2  0876               	movf	___fladd@a+2,w
  1670     02C3  00F2               	movwf	___fladd@b+2
  1671     02C4                     l1255:
  1672     02C4  087B               	movf	___fladd@grs,w
  1673     02C5  00F6               	movwf	___fladd@a+2
  1674     02C6                     l1257:
  1675     02C6  0873               	movf	___fladd@b+3,w
  1676     02C7  00FB               	movwf	___fladd@grs
  1677     02C8                     l1259:
  1678     02C8  0877               	movf	___fladd@a+3,w
  1679     02C9  00F3               	movwf	___fladd@b+3
  1680     02CA                     l1261:
  1681     02CA  087B               	movf	___fladd@grs,w
  1682     02CB  00F7               	movwf	___fladd@a+3
  1683     02CC                     l1263:
  1684     02CC  01FB               	clrf	___fladd@grs
  1685     02CD                     l1265:
  1686     02CD  0879               	movf	___fladd@aexp,w
  1687     02CE  00A0               	movwf	??___fladd
  1688     02CF  01A1               	clrf	??___fladd+1
  1689     02D0  0821               	movf	??___fladd+1,w
  1690     02D1  00A3               	movwf	??___fladd+3
  1691     02D2  087A               	movf	___fladd@bexp,w
  1692     02D3  0220               	subwf	??___fladd,w
  1693     02D4  00A2               	movwf	??___fladd+2
  1694     02D5  1C03               	skipc
  1695     02D6  03A3               	decf	??___fladd+3,f
  1696     02D7  0823               	movf	??___fladd+3,w
  1697     02D8  3A80               	xorlw	128
  1698     02D9  00FF               	movwf	btemp+1
  1699     02DA  3080               	movlw	128
  1700     02DB  027F               	subwf	btemp+1,w
  1701     02DC  1D03               	skipz
  1702     02DD  2AE0               	goto	u1355
  1703     02DE  301A               	movlw	26
  1704     02DF  0222               	subwf	??___fladd+2,w
  1705     02E0                     u1355:
  1706     02E0  1C03               	skipc
  1707     02E1  2AE3               	goto	u1351
  1708     02E2  2AE4               	goto	u1350
  1709     02E3                     u1351:
  1710     02E3  2B1D               	goto	l1281
  1711     02E4                     u1350:
  1712     02E4                     l1267:
  1713     02E4  0873               	movf	___fladd@b+3,w
  1714     02E5  0472               	iorwf	___fladd@b+2,w
  1715     02E6  0471               	iorwf	___fladd@b+1,w
  1716     02E7  0470               	iorwf	___fladd@b,w
  1717     02E8  1D03               	skipz
  1718     02E9  2AEB               	goto	u1361
  1719     02EA  2AED               	goto	u1360
  1720     02EB                     u1361:
  1721     02EB  3001               	movlw	1
  1722     02EC  2AEE               	goto	u1370
  1723     02ED                     u1360:
  1724     02ED  3000               	movlw	0
  1725     02EE                     u1370:
  1726     02EE  00FB               	movwf	___fladd@grs
  1727     02EF  3000               	movlw	0
  1728     02F0  00F3               	movwf	___fladd@b+3
  1729     02F1  3000               	movlw	0
  1730     02F2  00F2               	movwf	___fladd@b+2
  1731     02F3  3000               	movlw	0
  1732     02F4  00F1               	movwf	___fladd@b+1
  1733     02F5  3000               	movlw	0
  1734     02F6  00F0               	movwf	___fladd@b
  1735     02F7  0879               	movf	___fladd@aexp,w
  1736     02F8  00FA               	movwf	___fladd@bexp
  1737     02F9  2B23               	goto	l434
  1738     02FA                     l436:
  1739     02FA  1C7B               	btfss	___fladd@grs,0
  1740     02FB  2AFD               	goto	u1381
  1741     02FC  2AFE               	goto	u1380
  1742     02FD                     u1381:
  1743     02FD  2B07               	goto	l1271
  1744     02FE                     u1380:
  1745     02FE                     l1269:
  1746     02FE  087B               	movf	___fladd@grs,w
  1747     02FF  1283               	bcf	3,5	;RP0=0, select bank0
  1748     0300  1303               	bcf	3,6	;RP1=0, select bank0
  1749     0301  00A0               	movwf	??___fladd
  1750     0302  1003               	clrc
  1751     0303  0C20               	rrf	??___fladd,w
  1752     0304  3801               	iorlw	1
  1753     0305  00FB               	movwf	___fladd@grs
  1754     0306  2B09               	goto	l1273
  1755     0307                     l1271:
  1756     0307  1003               	clrc
  1757     0308  0CFB               	rrf	___fladd@grs,f
  1758     0309                     l1273:
  1759     0309  1C70               	btfss	___fladd@b,0
  1760     030A  2B0C               	goto	u1391
  1761     030B  2B0D               	goto	u1390
  1762     030C                     u1391:
  1763     030C  2B0E               	goto	l1277
  1764     030D                     u1390:
  1765     030D                     l1275:
  1766     030D  17FB               	bsf	___fladd@grs,7
  1767     030E                     l1277:
  1768     030E  3001               	movlw	1
  1769     030F  1283               	bcf	3,5	;RP0=0, select bank0
  1770     0310  1303               	bcf	3,6	;RP1=0, select bank0
  1771     0311  00A0               	movwf	??___fladd
  1772     0312                     u1405:
  1773     0312  0D73               	rlf	___fladd@b+3,w
  1774     0313  0CF3               	rrf	___fladd@b+3,f
  1775     0314  0CF2               	rrf	___fladd@b+2,f
  1776     0315  0CF1               	rrf	___fladd@b+1,f
  1777     0316  0CF0               	rrf	___fladd@b,f
  1778     0317  0BA0               	decfsz	??___fladd& (0+127),f
  1779     0318  2B12               	goto	u1405
  1780     0319                     l1279:
  1781     0319  3001               	movlw	1
  1782     031A  00FF               	movwf	btemp+1
  1783     031B  087F               	movf	btemp+1,w
  1784     031C  07FA               	addwf	___fladd@bexp,f
  1785     031D                     l1281:
  1786     031D  0879               	movf	___fladd@aexp,w
  1787     031E  027A               	subwf	___fladd@bexp,w
  1788     031F  1C03               	skipc
  1789     0320  2B22               	goto	u1411
  1790     0321  2B23               	goto	u1410
  1791     0322                     u1411:
  1792     0322  2AFA               	goto	l436
  1793     0323                     u1410:
  1794     0323                     l434:
  1795     0323  1B78               	btfsc	___fladd@signs,6
  1796     0324  2B26               	goto	u1421
  1797     0325  2B27               	goto	u1420
  1798     0326                     u1421:
  1799     0326  2B74               	goto	l1307
  1800     0327                     u1420:
  1801     0327                     l1283:
  1802     0327  087A               	movf	___fladd@bexp,w
  1803     0328  1D03               	btfss	3,2
  1804     0329  2B2B               	goto	u1431
  1805     032A  2B2C               	goto	u1430
  1806     032B                     u1431:
  1807     032B  2B35               	goto	l1289
  1808     032C                     u1430:
  1809     032C                     l1285:
  1810     032C  3000               	movlw	0
  1811     032D  00F3               	movwf	?___fladd+3
  1812     032E  3000               	movlw	0
  1813     032F  00F2               	movwf	?___fladd+2
  1814     0330  3000               	movlw	0
  1815     0331  00F1               	movwf	?___fladd+1
  1816     0332  3000               	movlw	0
  1817     0333  00F0               	movwf	?___fladd
  1818     0334  2CA8               	goto	l443
  1819     0335                     l1289:
  1820     0335  0874               	movf	___fladd@a,w
  1821     0336  07F0               	addwf	___fladd@b,f
  1822     0337  0875               	movf	___fladd@a+1,w
  1823     0338  1103               	clrz
  1824     0339  1803               	skipnc
  1825     033A  3E01               	addlw	1
  1826     033B  1903               	skipnz
  1827     033C  2B3E               	goto	u1441
  1828     033D  07F1               	addwf	___fladd@b+1,f
  1829     033E                     u1441:
  1830     033E  0876               	movf	___fladd@a+2,w
  1831     033F  1103               	clrz
  1832     0340  1803               	skipnc
  1833     0341  3E01               	addlw	1
  1834     0342  1903               	skipnz
  1835     0343  2B45               	goto	u1442
  1836     0344  07F2               	addwf	___fladd@b+2,f
  1837     0345                     u1442:
  1838     0345  0877               	movf	___fladd@a+3,w
  1839     0346  1103               	clrz
  1840     0347  1803               	skipnc
  1841     0348  3E01               	addlw	1
  1842     0349  1903               	skipnz
  1843     034A  2B4C               	goto	u1443
  1844     034B  07F3               	addwf	___fladd@b+3,f
  1845     034C                     u1443:
  1846     034C                     l1291:
  1847     034C  1C73               	btfss	___fladd@b+3,0
  1848     034D  2B4F               	goto	u1451
  1849     034E  2B50               	goto	u1450
  1850     034F                     u1451:
  1851     034F  2C2C               	goto	l1343
  1852     0350                     u1450:
  1853     0350                     l1293:
  1854     0350  1C7B               	btfss	___fladd@grs,0
  1855     0351  2B53               	goto	u1461
  1856     0352  2B54               	goto	u1460
  1857     0353                     u1461:
  1858     0353  2B5D               	goto	l1297
  1859     0354                     u1460:
  1860     0354                     l1295:
  1861     0354  087B               	movf	___fladd@grs,w
  1862     0355  1283               	bcf	3,5	;RP0=0, select bank0
  1863     0356  1303               	bcf	3,6	;RP1=0, select bank0
  1864     0357  00A0               	movwf	??___fladd
  1865     0358  1003               	clrc
  1866     0359  0C20               	rrf	??___fladd,w
  1867     035A  3801               	iorlw	1
  1868     035B  00FB               	movwf	___fladd@grs
  1869     035C  2B5F               	goto	l1299
  1870     035D                     l1297:
  1871     035D  1003               	clrc
  1872     035E  0CFB               	rrf	___fladd@grs,f
  1873     035F                     l1299:
  1874     035F  1C70               	btfss	___fladd@b,0
  1875     0360  2B62               	goto	u1471
  1876     0361  2B63               	goto	u1470
  1877     0362                     u1471:
  1878     0362  2B64               	goto	l1303
  1879     0363                     u1470:
  1880     0363                     l1301:
  1881     0363  17FB               	bsf	___fladd@grs,7
  1882     0364                     l1303:
  1883     0364  3001               	movlw	1
  1884     0365  1283               	bcf	3,5	;RP0=0, select bank0
  1885     0366  1303               	bcf	3,6	;RP1=0, select bank0
  1886     0367  00A0               	movwf	??___fladd
  1887     0368                     u1485:
  1888     0368  0D73               	rlf	___fladd@b+3,w
  1889     0369  0CF3               	rrf	___fladd@b+3,f
  1890     036A  0CF2               	rrf	___fladd@b+2,f
  1891     036B  0CF1               	rrf	___fladd@b+1,f
  1892     036C  0CF0               	rrf	___fladd@b,f
  1893     036D  0BA0               	decfsz	??___fladd& (0+127),f
  1894     036E  2B68               	goto	u1485
  1895     036F                     l1305:
  1896     036F  3001               	movlw	1
  1897     0370  00FF               	movwf	btemp+1
  1898     0371  087F               	movf	btemp+1,w
  1899     0372  07FA               	addwf	___fladd@bexp,f
  1900     0373  2C2C               	goto	l1343
  1901     0374                     l1307:
  1902     0374  0873               	movf	___fladd@b+3,w
  1903     0375  3A80               	xorlw	128
  1904     0376  00FF               	movwf	btemp+1
  1905     0377  0877               	movf	___fladd@a+3,w
  1906     0378  3A80               	xorlw	128
  1907     0379  027F               	subwf	btemp+1,w
  1908     037A  1D03               	skipz
  1909     037B  2B86               	goto	u1493
  1910     037C  0876               	movf	___fladd@a+2,w
  1911     037D  0272               	subwf	___fladd@b+2,w
  1912     037E  1D03               	skipz
  1913     037F  2B86               	goto	u1493
  1914     0380  0875               	movf	___fladd@a+1,w
  1915     0381  0271               	subwf	___fladd@b+1,w
  1916     0382  1D03               	skipz
  1917     0383  2B86               	goto	u1493
  1918     0384  0874               	movf	___fladd@a,w
  1919     0385  0270               	subwf	___fladd@b,w
  1920     0386                     u1493:
  1921     0386  1803               	skipnc
  1922     0387  2B89               	goto	u1491
  1923     0388  2B8A               	goto	u1490
  1924     0389                     u1491:
  1925     0389  2BE4               	goto	l1319
  1926     038A                     u1490:
  1927     038A                     l1309:
  1928     038A  30FF               	movlw	255
  1929     038B  1283               	bcf	3,5	;RP0=0, select bank0
  1930     038C  1303               	bcf	3,6	;RP1=0, select bank0
  1931     038D  00A0               	movwf	??___fladd
  1932     038E  30FF               	movlw	255
  1933     038F  00A1               	movwf	??___fladd+1
  1934     0390  30FF               	movlw	255
  1935     0391  00A2               	movwf	??___fladd+2
  1936     0392  30FF               	movlw	255
  1937     0393  00A3               	movwf	??___fladd+3
  1938     0394  0874               	movf	___fladd@a,w
  1939     0395  00A4               	movwf	??___fladd+4
  1940     0396  0875               	movf	___fladd@a+1,w
  1941     0397  00A5               	movwf	??___fladd+5
  1942     0398  0876               	movf	___fladd@a+2,w
  1943     0399  00A6               	movwf	??___fladd+6
  1944     039A  0877               	movf	___fladd@a+3,w
  1945     039B  00A7               	movwf	??___fladd+7
  1946     039C  0870               	movf	___fladd@b,w
  1947     039D  02A4               	subwf	??___fladd+4,f
  1948     039E  0871               	movf	___fladd@b+1,w
  1949     039F  1C03               	skipc
  1950     03A0  0F71               	incfsz	___fladd@b+1,w
  1951     03A1  2BA3               	goto	u1501
  1952     03A2  2BA4               	goto	u1502
  1953     03A3                     u1501:
  1954     03A3  02A5               	subwf	??___fladd+5,f
  1955     03A4                     u1502:
  1956     03A4  0872               	movf	___fladd@b+2,w
  1957     03A5  1C03               	skipc
  1958     03A6  0F72               	incfsz	___fladd@b+2,w
  1959     03A7  2BA9               	goto	u1503
  1960     03A8  2BAA               	goto	u1504
  1961     03A9                     u1503:
  1962     03A9  02A6               	subwf	??___fladd+6,f
  1963     03AA                     u1504:
  1964     03AA  0873               	movf	___fladd@b+3,w
  1965     03AB  1C03               	skipc
  1966     03AC  0F73               	incfsz	___fladd@b+3,w
  1967     03AD  2BAF               	goto	u1505
  1968     03AE  2BB0               	goto	u1506
  1969     03AF                     u1505:
  1970     03AF  02A7               	subwf	??___fladd+7,f
  1971     03B0                     u1506:
  1972     03B0  0824               	movf	??___fladd+4,w
  1973     03B1  07A0               	addwf	??___fladd,f
  1974     03B2  0825               	movf	??___fladd+5,w
  1975     03B3  1803               	skipnc
  1976     03B4  0F25               	incfsz	??___fladd+5,w
  1977     03B5  2BB7               	goto	u1510
  1978     03B6  2BB8               	goto	u1511
  1979     03B7                     u1510:
  1980     03B7  07A1               	addwf	??___fladd+1,f
  1981     03B8                     u1511:
  1982     03B8  0826               	movf	??___fladd+6,w
  1983     03B9  1803               	skipnc
  1984     03BA  0F26               	incfsz	??___fladd+6,w
  1985     03BB  2BBD               	goto	u1512
  1986     03BC  2BBE               	goto	u1513
  1987     03BD                     u1512:
  1988     03BD  07A2               	addwf	??___fladd+2,f
  1989     03BE                     u1513:
  1990     03BE  0827               	movf	??___fladd+7,w
  1991     03BF  1803               	skipnc
  1992     03C0  0A27               	incf	??___fladd+7,w
  1993     03C1  07A3               	addwf	??___fladd+3,f
  1994     03C2  0823               	movf	??___fladd+3,w
  1995     03C3  00F3               	movwf	___fladd@b+3
  1996     03C4  0822               	movf	??___fladd+2,w
  1997     03C5  00F2               	movwf	___fladd@b+2
  1998     03C6  0821               	movf	??___fladd+1,w
  1999     03C7  00F1               	movwf	___fladd@b+1
  2000     03C8  0820               	movf	??___fladd,w
  2001     03C9  00F0               	movwf	___fladd@b
  2002     03CA                     l1311:
  2003     03CA  3080               	movlw	128
  2004     03CB  00FF               	movwf	btemp+1
  2005     03CC  087F               	movf	btemp+1,w
  2006     03CD  06F8               	xorwf	___fladd@signs,f
  2007     03CE                     l1313:
  2008     03CE  09FB               	comf	___fladd@grs,f
  2009     03CF  0AFB               	incf	___fladd@grs,f
  2010     03D0                     l1315:
  2011     03D0  087B               	movf	___fladd@grs,w
  2012     03D1  1D03               	btfss	3,2
  2013     03D2  2BD4               	goto	u1521
  2014     03D3  2BD5               	goto	u1520
  2015     03D4                     u1521:
  2016     03D4  2BF2               	goto	l451
  2017     03D5                     u1520:
  2018     03D5                     l1317:
  2019     03D5  3001               	movlw	1
  2020     03D6  07F0               	addwf	___fladd@b,f
  2021     03D7  3000               	movlw	0
  2022     03D8  1803               	skipnc
  2023     03D9  3001               	movlw	1
  2024     03DA  07F1               	addwf	___fladd@b+1,f
  2025     03DB  3000               	movlw	0
  2026     03DC  1803               	skipnc
  2027     03DD  3001               	movlw	1
  2028     03DE  07F2               	addwf	___fladd@b+2,f
  2029     03DF  3000               	movlw	0
  2030     03E0  1803               	skipnc
  2031     03E1  3001               	movlw	1
  2032     03E2  07F3               	addwf	___fladd@b+3,f
  2033     03E3  2BF2               	goto	l451
  2034     03E4                     l1319:
  2035     03E4  0874               	movf	___fladd@a,w
  2036     03E5  02F0               	subwf	___fladd@b,f
  2037     03E6  0875               	movf	___fladd@a+1,w
  2038     03E7  1C03               	skipc
  2039     03E8  0F75               	incfsz	___fladd@a+1,w
  2040     03E9  02F1               	subwf	___fladd@b+1,f
  2041     03EA  0876               	movf	___fladd@a+2,w
  2042     03EB  1C03               	skipc
  2043     03EC  0F76               	incfsz	___fladd@a+2,w
  2044     03ED  02F2               	subwf	___fladd@b+2,f
  2045     03EE  0877               	movf	___fladd@a+3,w
  2046     03EF  1C03               	skipc
  2047     03F0  0F77               	incfsz	___fladd@a+3,w
  2048     03F1  02F3               	subwf	___fladd@b+3,f
  2049     03F2                     l451:
  2050     03F2  0873               	movf	___fladd@b+3,w
  2051     03F3  0472               	iorwf	___fladd@b+2,w
  2052     03F4  0471               	iorwf	___fladd@b+1,w
  2053     03F5  0470               	iorwf	___fladd@b,w
  2054     03F6  1D03               	skipz
  2055     03F7  2BF9               	goto	u1531
  2056     03F8  2BFA               	goto	u1530
  2057     03F9                     u1531:
  2058     03F9  2C28               	goto	l1341
  2059     03FA                     u1530:
  2060     03FA                     l1321:
  2061     03FA  087B               	movf	___fladd@grs,w
  2062     03FB  1D03               	btfss	3,2
  2063     03FC  2BFE               	goto	u1541
  2064     03FD  2BFF               	goto	u1540
  2065     03FE                     u1541:
  2066     03FE  2C28               	goto	l1341
  2067     03FF                     u1540:
  2068     03FF                     l1323:
  2069     03FF  3000               	movlw	0
  2070     0400  00F3               	movwf	?___fladd+3
  2071     0401  3000               	movlw	0
  2072     0402  00F2               	movwf	?___fladd+2
  2073     0403  3000               	movlw	0
  2074     0404  00F1               	movwf	?___fladd+1
  2075     0405  3000               	movlw	0
  2076     0406  00F0               	movwf	?___fladd
  2077     0407  2CA8               	goto	l443
  2078     0408                     l1327:
  2079     0408  3001               	movlw	1
  2080     0409  1283               	bcf	3,5	;RP0=0, select bank0
  2081     040A  1303               	bcf	3,6	;RP1=0, select bank0
  2082     040B  00A0               	movwf	??___fladd
  2083     040C                     u1555:
  2084     040C  1003               	clrc
  2085     040D  0DF0               	rlf	___fladd@b,f
  2086     040E  0DF1               	rlf	___fladd@b+1,f
  2087     040F  0DF2               	rlf	___fladd@b+2,f
  2088     0410  0DF3               	rlf	___fladd@b+3,f
  2089     0411  0BA0               	decfsz	??___fladd,f
  2090     0412  2C0C               	goto	u1555
  2091     0413                     l1329:
  2092     0413  1FFB               	btfss	___fladd@grs,7
  2093     0414  2C16               	goto	u1561
  2094     0415  2C17               	goto	u1560
  2095     0416                     u1561:
  2096     0416  2C18               	goto	l455
  2097     0417                     u1560:
  2098     0417                     l1331:
  2099     0417  1470               	bsf	___fladd@b,0
  2100     0418                     l455:
  2101     0418  1C7B               	btfss	___fladd@grs,0
  2102     0419  2C1B               	goto	u1571
  2103     041A  2C1C               	goto	u1570
  2104     041B                     u1571:
  2105     041B  2C1F               	goto	l1335
  2106     041C                     u1570:
  2107     041C                     l1333:
  2108     041C  1403               	setc
  2109     041D  0DFB               	rlf	___fladd@grs,f
  2110     041E  2C21               	goto	l1337
  2111     041F                     l1335:
  2112     041F  1003               	clrc
  2113     0420  0DFB               	rlf	___fladd@grs,f
  2114     0421                     l1337:
  2115     0421  087A               	movf	___fladd@bexp,w
  2116     0422  1903               	btfsc	3,2
  2117     0423  2C25               	goto	u1581
  2118     0424  2C26               	goto	u1580
  2119     0425                     u1581:
  2120     0425  2C28               	goto	l1341
  2121     0426                     u1580:
  2122     0426                     l1339:
  2123     0426  3001               	movlw	1
  2124     0427  02FA               	subwf	___fladd@bexp,f
  2125     0428                     l1341:
  2126     0428  1FF2               	btfss	___fladd@b+2,7
  2127     0429  2C2B               	goto	u1591
  2128     042A  2C2C               	goto	u1590
  2129     042B                     u1591:
  2130     042B  2C08               	goto	l1327
  2131     042C                     u1590:
  2132     042C                     l1343:
  2133     042C  01F9               	clrf	___fladd@aexp
  2134     042D                     l1345:
  2135     042D  1FFB               	btfss	___fladd@grs,7
  2136     042E  2C30               	goto	u1601
  2137     042F  2C31               	goto	u1600
  2138     0430                     u1601:
  2139     0430  2C3F               	goto	l1353
  2140     0431                     u1600:
  2141     0431                     l1347:
  2142     0431  087B               	movf	___fladd@grs,w
  2143     0432  397F               	andlw	127
  2144     0433  1903               	btfsc	3,2
  2145     0434  2C36               	goto	u1611
  2146     0435  2C37               	goto	u1610
  2147     0436                     u1611:
  2148     0436  2C3A               	goto	l461
  2149     0437                     u1610:
  2150     0437                     l1349:
  2151     0437  01F9               	clrf	___fladd@aexp
  2152     0438  0AF9               	incf	___fladd@aexp,f
  2153     0439  2C3F               	goto	l1353
  2154     043A                     l461:
  2155     043A  1C70               	btfss	___fladd@b,0
  2156     043B  2C3D               	goto	u1621
  2157     043C  2C3E               	goto	u1620
  2158     043D                     u1621:
  2159     043D  2C3F               	goto	l1353
  2160     043E                     u1620:
  2161     043E  2C37               	goto	l1349
  2162     043F                     l1353:
  2163     043F  0879               	movf	___fladd@aexp,w
  2164     0440  1903               	btfsc	3,2
  2165     0441  2C43               	goto	u1631
  2166     0442  2C44               	goto	u1630
  2167     0443                     u1631:
  2168     0443  2C7A               	goto	l1363
  2169     0444                     u1630:
  2170     0444                     l1355:
  2171     0444  3001               	movlw	1
  2172     0445  07F0               	addwf	___fladd@b,f
  2173     0446  3000               	movlw	0
  2174     0447  1803               	skipnc
  2175     0448  3001               	movlw	1
  2176     0449  07F1               	addwf	___fladd@b+1,f
  2177     044A  3000               	movlw	0
  2178     044B  1803               	skipnc
  2179     044C  3001               	movlw	1
  2180     044D  07F2               	addwf	___fladd@b+2,f
  2181     044E  3000               	movlw	0
  2182     044F  1803               	skipnc
  2183     0450  3001               	movlw	1
  2184     0451  07F3               	addwf	___fladd@b+3,f
  2185     0452                     l1357:
  2186     0452  1C73               	btfss	___fladd@b+3,0
  2187     0453  2C55               	goto	u1641
  2188     0454  2C56               	goto	u1640
  2189     0455                     u1641:
  2190     0455  2C7A               	goto	l1363
  2191     0456                     u1640:
  2192     0456                     l1359:
  2193     0456  0870               	movf	___fladd@b,w
  2194     0457  1283               	bcf	3,5	;RP0=0, select bank0
  2195     0458  1303               	bcf	3,6	;RP1=0, select bank0
  2196     0459  00A0               	movwf	??___fladd
  2197     045A  0871               	movf	___fladd@b+1,w
  2198     045B  00A1               	movwf	??___fladd+1
  2199     045C  0872               	movf	___fladd@b+2,w
  2200     045D  00A2               	movwf	??___fladd+2
  2201     045E  0873               	movf	___fladd@b+3,w
  2202     045F  00A3               	movwf	??___fladd+3
  2203     0460  3001               	movlw	1
  2204     0461  00A4               	movwf	??___fladd+4
  2205     0462                     u1655:
  2206     0462  0D23               	rlf	??___fladd+3,w
  2207     0463  0CA3               	rrf	??___fladd+3,f
  2208     0464  0CA2               	rrf	??___fladd+2,f
  2209     0465  0CA1               	rrf	??___fladd+1,f
  2210     0466  0CA0               	rrf	??___fladd,f
  2211     0467                     u1650:
  2212     0467  0BA4               	decfsz	??___fladd+4,f
  2213     0468  2C62               	goto	u1655
  2214     0469  0823               	movf	??___fladd+3,w
  2215     046A  00F3               	movwf	___fladd@b+3
  2216     046B  0822               	movf	??___fladd+2,w
  2217     046C  00F2               	movwf	___fladd@b+2
  2218     046D  0821               	movf	??___fladd+1,w
  2219     046E  00F1               	movwf	___fladd@b+1
  2220     046F  0820               	movf	??___fladd,w
  2221     0470  00F0               	movwf	___fladd@b
  2222     0471  0A7A               	incf	___fladd@bexp,w
  2223     0472  1903               	btfsc	3,2
  2224     0473  2C75               	goto	u1661
  2225     0474  2C76               	goto	u1660
  2226     0475                     u1661:
  2227     0475  2C7A               	goto	l1363
  2228     0476                     u1660:
  2229     0476                     l1361:
  2230     0476  3001               	movlw	1
  2231     0477  00FF               	movwf	btemp+1
  2232     0478  087F               	movf	btemp+1,w
  2233     0479  07FA               	addwf	___fladd@bexp,f
  2234     047A                     l1363:
  2235     047A  0A7A               	incf	___fladd@bexp,w
  2236     047B  1903               	btfsc	3,2
  2237     047C  2C7E               	goto	u1671
  2238     047D  2C7F               	goto	u1670
  2239     047E                     u1671:
  2240     047E  2C84               	goto	l1367
  2241     047F                     u1670:
  2242     047F                     l1365:
  2243     047F  087A               	movf	___fladd@bexp,w
  2244     0480  1D03               	btfss	3,2
  2245     0481  2C83               	goto	u1681
  2246     0482  2C84               	goto	u1680
  2247     0483                     u1681:
  2248     0483  2C92               	goto	l1373
  2249     0484                     u1680:
  2250     0484                     l1367:
  2251     0484  3000               	movlw	0
  2252     0485  00F3               	movwf	___fladd@b+3
  2253     0486  3000               	movlw	0
  2254     0487  00F2               	movwf	___fladd@b+2
  2255     0488  3000               	movlw	0
  2256     0489  00F1               	movwf	___fladd@b+1
  2257     048A  3000               	movlw	0
  2258     048B  00F0               	movwf	___fladd@b
  2259     048C                     l1369:
  2260     048C  087A               	movf	___fladd@bexp,w
  2261     048D  1D03               	btfss	3,2
  2262     048E  2C90               	goto	u1691
  2263     048F  2C91               	goto	u1690
  2264     0490                     u1691:
  2265     0490  2C92               	goto	l1373
  2266     0491                     u1690:
  2267     0491                     l1371:
  2268     0491  01F8               	clrf	___fladd@signs
  2269     0492                     l1373:
  2270     0492  1C7A               	btfss	___fladd@bexp,0
  2271     0493  2C95               	goto	u1701
  2272     0494  2C96               	goto	u1700
  2273     0495                     u1701:
  2274     0495  2C98               	goto	l1377
  2275     0496                     u1700:
  2276     0496                     l1375:
  2277     0496  17F2               	bsf	___fladd@b+2,7
  2278     0497  2C9C               	goto	l1379
  2279     0498                     l1377:
  2280     0498  307F               	movlw	127
  2281     0499  00FF               	movwf	btemp+1
  2282     049A  087F               	movf	btemp+1,w
  2283     049B  05F2               	andwf	___fladd@b+2,f
  2284     049C                     l1379:
  2285     049C  087A               	movf	___fladd@bexp,w
  2286     049D  1283               	bcf	3,5	;RP0=0, select bank0
  2287     049E  1303               	bcf	3,6	;RP1=0, select bank0
  2288     049F  00A0               	movwf	??___fladd
  2289     04A0  1003               	clrc
  2290     04A1  0C20               	rrf	??___fladd,w
  2291     04A2  00F3               	movwf	___fladd@b+3
  2292     04A3                     l1381:
  2293     04A3  1FF8               	btfss	___fladd@signs,7
  2294     04A4  2CA6               	goto	u1711
  2295     04A5  2CA7               	goto	u1710
  2296     04A6                     u1711:
  2297     04A6  2CA8               	goto	l473
  2298     04A7                     u1710:
  2299     04A7                     l1383:
  2300     04A7  17F3               	bsf	___fladd@b+3,7
  2301     04A8                     l473:
  2302     04A8                     l443:
  2303     04A8  0008               	return
  2304     04A9                     __end_of___fladd:
  2305                           
  2306                           	psect	text6
  2307     04A9                     __ptext6:	
  2308 ;; *************** function ___flmul *****************
  2309 ;; Defined at:
  2310 ;;		line 8 in file "C:\Program Files\Microchip\xc8\v2.41\pic\sources\c90\common\sprcmul.c"
  2311 ;; Parameters:    Size  Location     Type
  2312 ;;  b               4   22[BANK0 ] unsigned char 
  2313 ;;  a               4   26[BANK0 ] unsigned char 
  2314 ;; Auto vars:     Size  Location     Type
  2315 ;;  prod            4   42[BANK0 ] struct .
  2316 ;;  grs             4   36[BANK0 ] unsigned long 
  2317 ;;  temp            2   46[BANK0 ] struct .
  2318 ;;  bexp            1   41[BANK0 ] unsigned char 
  2319 ;;  aexp            1   40[BANK0 ] unsigned char 
  2320 ;;  sign            1   35[BANK0 ] unsigned char 
  2321 ;; Return value:  Size  Location     Type
  2322 ;;                  4   22[BANK0 ] unsigned char 
  2323 ;; Registers used:
  2324 ;;		wreg, status,2, status,0, btemp+1, pclath, cstack
  2325 ;; Tracked objects:
  2326 ;;		On entry : 0/0
  2327 ;;		On exit  : 0/0
  2328 ;;		Unchanged: 0/0
  2329 ;; Data sizes:     COMMON   BANK0   BANK1   BANK3   BANK2
  2330 ;;      Params:         0       8       0       0       0
  2331 ;;      Locals:         0      13       0       0       0
  2332 ;;      Temps:          0       5       0       0       0
  2333 ;;      Totals:         0      26       0       0       0
  2334 ;;Total ram usage:       26 bytes
  2335 ;; Hardware stack levels used: 1
  2336 ;; Hardware stack levels required when called: 1
  2337 ;; This function calls:
  2338 ;;		__Umul8_16
  2339 ;; This function is called by:
  2340 ;;		_display
  2341 ;; This function uses a non-reentrant model
  2342 ;;
  2343                           
  2344     04A9                     ___flmul:	
  2345                           ;psect for function ___flmul
  2346                           
  2347     04A9                     l1443:	
  2348                           ;incstack = 0
  2349                           ; Regs used in ___flmul: [wreg+status,2+status,0+btemp+1+pclath+cstack]
  2350                           
  2351     04A9  1283               	bcf	3,5	;RP0=0, select bank0
  2352     04AA  1303               	bcf	3,6	;RP1=0, select bank0
  2353     04AB  0839               	movf	___flmul@b+3,w
  2354     04AC  3980               	andlw	128
  2355     04AD  00C3               	movwf	___flmul@sign
  2356     04AE                     l1445:
  2357     04AE  0839               	movf	___flmul@b+3,w
  2358     04AF  00BE               	movwf	??___flmul
  2359     04B0  073E               	addwf	??___flmul,w
  2360     04B1  00C9               	movwf	___flmul@bexp
  2361     04B2                     l1447:
  2362     04B2  1FB8               	btfss	___flmul@b+2,7
  2363     04B3  2CB5               	goto	u1851
  2364     04B4  2CB6               	goto	u1850
  2365     04B5                     u1851:
  2366     04B5  2CB7               	goto	l1451
  2367     04B6                     u1850:
  2368     04B6                     l1449:
  2369     04B6  1449               	bsf	___flmul@bexp,0
  2370     04B7                     l1451:
  2371     04B7  0849               	movf	___flmul@bexp,w
  2372     04B8  1903               	btfsc	3,2
  2373     04B9  2CBB               	goto	u1861
  2374     04BA  2CBC               	goto	u1860
  2375     04BB                     u1861:
  2376     04BB  2CCB               	goto	l1459
  2377     04BC                     u1860:
  2378     04BC                     l1453:
  2379     04BC  0A49               	incf	___flmul@bexp,w
  2380     04BD  1D03               	btfss	3,2
  2381     04BE  2CC0               	goto	u1871
  2382     04BF  2CC1               	goto	u1870
  2383     04C0                     u1871:
  2384     04C0  2CC9               	goto	l1457
  2385     04C1                     u1870:
  2386     04C1                     l1455:
  2387     04C1  3000               	movlw	0
  2388     04C2  00B9               	movwf	___flmul@b+3
  2389     04C3  3000               	movlw	0
  2390     04C4  00B8               	movwf	___flmul@b+2
  2391     04C5  3000               	movlw	0
  2392     04C6  00B7               	movwf	___flmul@b+1
  2393     04C7  3000               	movlw	0
  2394     04C8  00B6               	movwf	___flmul@b
  2395     04C9                     l1457:
  2396     04C9  17B8               	bsf	___flmul@b+2,7
  2397     04CA  2CD3               	goto	l1461
  2398     04CB                     l1459:
  2399     04CB  3000               	movlw	0
  2400     04CC  00B9               	movwf	___flmul@b+3
  2401     04CD  3000               	movlw	0
  2402     04CE  00B8               	movwf	___flmul@b+2
  2403     04CF  3000               	movlw	0
  2404     04D0  00B7               	movwf	___flmul@b+1
  2405     04D1  3000               	movlw	0
  2406     04D2  00B6               	movwf	___flmul@b
  2407     04D3                     l1461:
  2408     04D3  083D               	movf	___flmul@a+3,w
  2409     04D4  3980               	andlw	128
  2410     04D5  00FF               	movwf	btemp+1
  2411     04D6  087F               	movf	btemp+1,w
  2412     04D7  06C3               	xorwf	___flmul@sign,f
  2413     04D8                     l1463:
  2414     04D8  083D               	movf	___flmul@a+3,w
  2415     04D9  00BE               	movwf	??___flmul
  2416     04DA  073E               	addwf	??___flmul,w
  2417     04DB  00C8               	movwf	___flmul@aexp
  2418     04DC                     l1465:
  2419     04DC  1FBC               	btfss	___flmul@a+2,7
  2420     04DD  2CDF               	goto	u1881
  2421     04DE  2CE0               	goto	u1880
  2422     04DF                     u1881:
  2423     04DF  2CE1               	goto	l1469
  2424     04E0                     u1880:
  2425     04E0                     l1467:
  2426     04E0  1448               	bsf	___flmul@aexp,0
  2427     04E1                     l1469:
  2428     04E1  0848               	movf	___flmul@aexp,w
  2429     04E2  1903               	btfsc	3,2
  2430     04E3  2CE5               	goto	u1891
  2431     04E4  2CE6               	goto	u1890
  2432     04E5                     u1891:
  2433     04E5  2CF5               	goto	l1477
  2434     04E6                     u1890:
  2435     04E6                     l1471:
  2436     04E6  0A48               	incf	___flmul@aexp,w
  2437     04E7  1D03               	btfss	3,2
  2438     04E8  2CEA               	goto	u1901
  2439     04E9  2CEB               	goto	u1900
  2440     04EA                     u1901:
  2441     04EA  2CF3               	goto	l1475
  2442     04EB                     u1900:
  2443     04EB                     l1473:
  2444     04EB  3000               	movlw	0
  2445     04EC  00BD               	movwf	___flmul@a+3
  2446     04ED  3000               	movlw	0
  2447     04EE  00BC               	movwf	___flmul@a+2
  2448     04EF  3000               	movlw	0
  2449     04F0  00BB               	movwf	___flmul@a+1
  2450     04F1  3000               	movlw	0
  2451     04F2  00BA               	movwf	___flmul@a
  2452     04F3                     l1475:
  2453     04F3  17BC               	bsf	___flmul@a+2,7
  2454     04F4  2CFD               	goto	l1479
  2455     04F5                     l1477:
  2456     04F5  3000               	movlw	0
  2457     04F6  00BD               	movwf	___flmul@a+3
  2458     04F7  3000               	movlw	0
  2459     04F8  00BC               	movwf	___flmul@a+2
  2460     04F9  3000               	movlw	0
  2461     04FA  00BB               	movwf	___flmul@a+1
  2462     04FB  3000               	movlw	0
  2463     04FC  00BA               	movwf	___flmul@a
  2464     04FD                     l1479:
  2465     04FD  0848               	movf	___flmul@aexp,w
  2466     04FE  1903               	btfsc	3,2
  2467     04FF  2D01               	goto	u1911
  2468     0500  2D02               	goto	u1910
  2469     0501                     u1911:
  2470     0501  2D07               	goto	l1483
  2471     0502                     u1910:
  2472     0502                     l1481:
  2473     0502  0849               	movf	___flmul@bexp,w
  2474     0503  1D03               	btfss	3,2
  2475     0504  2D06               	goto	u1921
  2476     0505  2D07               	goto	u1920
  2477     0506                     u1921:
  2478     0506  2D10               	goto	l1487
  2479     0507                     u1920:
  2480     0507                     l1483:
  2481     0507  3000               	movlw	0
  2482     0508  00B9               	movwf	?___flmul+3
  2483     0509  3000               	movlw	0
  2484     050A  00B8               	movwf	?___flmul+2
  2485     050B  3000               	movlw	0
  2486     050C  00B7               	movwf	?___flmul+1
  2487     050D  3000               	movlw	0
  2488     050E  00B6               	movwf	?___flmul
  2489     050F  2FED               	goto	l526
  2490     0510                     l1487:
  2491     0510  0836               	movf	___flmul@b,w
  2492     0511  00F0               	movwf	__Umul8_16@multiplicand
  2493     0512  083C               	movf	___flmul@a+2,w
  2494     0513  120A  158A  2736  120A  118A  	fcall	__Umul8_16
  2495     0518  0871               	movf	?__Umul8_16+1,w
  2496     0519  1283               	bcf	3,5	;RP0=0, select bank0
  2497     051A  1303               	bcf	3,6	;RP1=0, select bank0
  2498     051B  00CF               	movwf	___flmul@temp+1
  2499     051C  0870               	movf	?__Umul8_16,w
  2500     051D  00CE               	movwf	___flmul@temp
  2501     051E                     l1489:
  2502     051E  084E               	movf	___flmul@temp,w
  2503     051F  00BE               	movwf	??___flmul
  2504     0520  01BF               	clrf	??___flmul+1
  2505     0521  01C0               	clrf	??___flmul+2
  2506     0522  01C1               	clrf	??___flmul+3
  2507     0523  0841               	movf	??___flmul+3,w
  2508     0524  00C7               	movwf	___flmul@grs+3
  2509     0525  0840               	movf	??___flmul+2,w
  2510     0526  00C6               	movwf	___flmul@grs+2
  2511     0527  083F               	movf	??___flmul+1,w
  2512     0528  00C5               	movwf	___flmul@grs+1
  2513     0529  083E               	movf	??___flmul,w
  2514     052A  00C4               	movwf	___flmul@grs
  2515     052B                     l1491:
  2516     052B  084F               	movf	___flmul@temp+1,w
  2517     052C  00BE               	movwf	??___flmul
  2518     052D  01BF               	clrf	??___flmul+1
  2519     052E  01C0               	clrf	??___flmul+2
  2520     052F  01C1               	clrf	??___flmul+3
  2521     0530  0841               	movf	??___flmul+3,w
  2522     0531  00CD               	movwf	___flmul@prod+3
  2523     0532  0840               	movf	??___flmul+2,w
  2524     0533  00CC               	movwf	___flmul@prod+2
  2525     0534  083F               	movf	??___flmul+1,w
  2526     0535  00CB               	movwf	___flmul@prod+1
  2527     0536  083E               	movf	??___flmul,w
  2528     0537  00CA               	movwf	___flmul@prod
  2529     0538  0837               	movf	___flmul@b+1,w
  2530     0539  00F0               	movwf	__Umul8_16@multiplicand
  2531     053A  083B               	movf	___flmul@a+1,w
  2532     053B  120A  158A  2736  120A  118A  	fcall	__Umul8_16
  2533     0540  0871               	movf	?__Umul8_16+1,w
  2534     0541  1283               	bcf	3,5	;RP0=0, select bank0
  2535     0542  1303               	bcf	3,6	;RP1=0, select bank0
  2536     0543  00CF               	movwf	___flmul@temp+1
  2537     0544  0870               	movf	?__Umul8_16,w
  2538     0545  00CE               	movwf	___flmul@temp
  2539     0546                     l1493:
  2540     0546  084E               	movf	___flmul@temp,w
  2541     0547  00BE               	movwf	??___flmul
  2542     0548  01BF               	clrf	??___flmul+1
  2543     0549  01C0               	clrf	??___flmul+2
  2544     054A  01C1               	clrf	??___flmul+3
  2545     054B  083E               	movf	??___flmul,w
  2546     054C  07C4               	addwf	___flmul@grs,f
  2547     054D  083F               	movf	??___flmul+1,w
  2548     054E  1103               	clrz
  2549     054F  1803               	skipnc
  2550     0550  3E01               	addlw	1
  2551     0551  1903               	skipnz
  2552     0552  2D54               	goto	u1931
  2553     0553  07C5               	addwf	___flmul@grs+1,f
  2554     0554                     u1931:
  2555     0554  0840               	movf	??___flmul+2,w
  2556     0555  1103               	clrz
  2557     0556  1803               	skipnc
  2558     0557  3E01               	addlw	1
  2559     0558  1903               	skipnz
  2560     0559  2D5B               	goto	u1932
  2561     055A  07C6               	addwf	___flmul@grs+2,f
  2562     055B                     u1932:
  2563     055B  0841               	movf	??___flmul+3,w
  2564     055C  1103               	clrz
  2565     055D  1803               	skipnc
  2566     055E  3E01               	addlw	1
  2567     055F  1903               	skipnz
  2568     0560  2D62               	goto	u1933
  2569     0561  07C7               	addwf	___flmul@grs+3,f
  2570     0562                     u1933:
  2571     0562                     l1495:
  2572     0562  084F               	movf	___flmul@temp+1,w
  2573     0563  00BE               	movwf	??___flmul
  2574     0564  01BF               	clrf	??___flmul+1
  2575     0565  01C0               	clrf	??___flmul+2
  2576     0566  01C1               	clrf	??___flmul+3
  2577     0567  083E               	movf	??___flmul,w
  2578     0568  07CA               	addwf	___flmul@prod,f
  2579     0569  083F               	movf	??___flmul+1,w
  2580     056A  1103               	clrz
  2581     056B  1803               	skipnc
  2582     056C  3E01               	addlw	1
  2583     056D  1903               	skipnz
  2584     056E  2D70               	goto	u1941
  2585     056F  07CB               	addwf	___flmul@prod+1,f
  2586     0570                     u1941:
  2587     0570  0840               	movf	??___flmul+2,w
  2588     0571  1103               	clrz
  2589     0572  1803               	skipnc
  2590     0573  3E01               	addlw	1
  2591     0574  1903               	skipnz
  2592     0575  2D77               	goto	u1942
  2593     0576  07CC               	addwf	___flmul@prod+2,f
  2594     0577                     u1942:
  2595     0577  0841               	movf	??___flmul+3,w
  2596     0578  1103               	clrz
  2597     0579  1803               	skipnc
  2598     057A  3E01               	addlw	1
  2599     057B  1903               	skipnz
  2600     057C  2D7E               	goto	u1943
  2601     057D  07CD               	addwf	___flmul@prod+3,f
  2602     057E                     u1943:
  2603     057E  0838               	movf	___flmul@b+2,w
  2604     057F  00F0               	movwf	__Umul8_16@multiplicand
  2605     0580  083A               	movf	___flmul@a,w
  2606     0581  120A  158A  2736  120A  118A  	fcall	__Umul8_16
  2607     0586  0871               	movf	?__Umul8_16+1,w
  2608     0587  1283               	bcf	3,5	;RP0=0, select bank0
  2609     0588  1303               	bcf	3,6	;RP1=0, select bank0
  2610     0589  00CF               	movwf	___flmul@temp+1
  2611     058A  0870               	movf	?__Umul8_16,w
  2612     058B  00CE               	movwf	___flmul@temp
  2613     058C                     l1497:
  2614     058C  084E               	movf	___flmul@temp,w
  2615     058D  00BE               	movwf	??___flmul
  2616     058E  01BF               	clrf	??___flmul+1
  2617     058F  01C0               	clrf	??___flmul+2
  2618     0590  01C1               	clrf	??___flmul+3
  2619     0591  083E               	movf	??___flmul,w
  2620     0592  07C4               	addwf	___flmul@grs,f
  2621     0593  083F               	movf	??___flmul+1,w
  2622     0594  1103               	clrz
  2623     0595  1803               	skipnc
  2624     0596  3E01               	addlw	1
  2625     0597  1903               	skipnz
  2626     0598  2D9A               	goto	u1951
  2627     0599  07C5               	addwf	___flmul@grs+1,f
  2628     059A                     u1951:
  2629     059A  0840               	movf	??___flmul+2,w
  2630     059B  1103               	clrz
  2631     059C  1803               	skipnc
  2632     059D  3E01               	addlw	1
  2633     059E  1903               	skipnz
  2634     059F  2DA1               	goto	u1952
  2635     05A0  07C6               	addwf	___flmul@grs+2,f
  2636     05A1                     u1952:
  2637     05A1  0841               	movf	??___flmul+3,w
  2638     05A2  1103               	clrz
  2639     05A3  1803               	skipnc
  2640     05A4  3E01               	addlw	1
  2641     05A5  1903               	skipnz
  2642     05A6  2DA8               	goto	u1953
  2643     05A7  07C7               	addwf	___flmul@grs+3,f
  2644     05A8                     u1953:
  2645     05A8                     l1499:
  2646     05A8  084F               	movf	___flmul@temp+1,w
  2647     05A9  00BE               	movwf	??___flmul
  2648     05AA  01BF               	clrf	??___flmul+1
  2649     05AB  01C0               	clrf	??___flmul+2
  2650     05AC  01C1               	clrf	??___flmul+3
  2651     05AD  083E               	movf	??___flmul,w
  2652     05AE  07CA               	addwf	___flmul@prod,f
  2653     05AF  083F               	movf	??___flmul+1,w
  2654     05B0  1103               	clrz
  2655     05B1  1803               	skipnc
  2656     05B2  3E01               	addlw	1
  2657     05B3  1903               	skipnz
  2658     05B4  2DB6               	goto	u1961
  2659     05B5  07CB               	addwf	___flmul@prod+1,f
  2660     05B6                     u1961:
  2661     05B6  0840               	movf	??___flmul+2,w
  2662     05B7  1103               	clrz
  2663     05B8  1803               	skipnc
  2664     05B9  3E01               	addlw	1
  2665     05BA  1903               	skipnz
  2666     05BB  2DBD               	goto	u1962
  2667     05BC  07CC               	addwf	___flmul@prod+2,f
  2668     05BD                     u1962:
  2669     05BD  0841               	movf	??___flmul+3,w
  2670     05BE  1103               	clrz
  2671     05BF  1803               	skipnc
  2672     05C0  3E01               	addlw	1
  2673     05C1  1903               	skipnz
  2674     05C2  2DC4               	goto	u1963
  2675     05C3  07CD               	addwf	___flmul@prod+3,f
  2676     05C4                     u1963:
  2677     05C4                     l1501:
  2678     05C4  3008               	movlw	8
  2679     05C5  00BE               	movwf	??___flmul
  2680     05C6                     u1975:
  2681     05C6  1003               	clrc
  2682     05C7  0DC4               	rlf	___flmul@grs,f
  2683     05C8  0DC5               	rlf	___flmul@grs+1,f
  2684     05C9  0DC6               	rlf	___flmul@grs+2,f
  2685     05CA  0DC7               	rlf	___flmul@grs+3,f
  2686     05CB  0BBE               	decfsz	??___flmul,f
  2687     05CC  2DC6               	goto	u1975
  2688     05CD                     l1503:
  2689     05CD  0837               	movf	___flmul@b+1,w
  2690     05CE  00F0               	movwf	__Umul8_16@multiplicand
  2691     05CF  083A               	movf	___flmul@a,w
  2692     05D0  120A  158A  2736  120A  118A  	fcall	__Umul8_16
  2693     05D5  0871               	movf	?__Umul8_16+1,w
  2694     05D6  1283               	bcf	3,5	;RP0=0, select bank0
  2695     05D7  1303               	bcf	3,6	;RP1=0, select bank0
  2696     05D8  00CF               	movwf	___flmul@temp+1
  2697     05D9  0870               	movf	?__Umul8_16,w
  2698     05DA  00CE               	movwf	___flmul@temp
  2699     05DB                     l1505:
  2700     05DB  084E               	movf	___flmul@temp,w
  2701     05DC  00BE               	movwf	??___flmul
  2702     05DD  084F               	movf	___flmul@temp+1,w
  2703     05DE  00BF               	movwf	??___flmul+1
  2704     05DF  01C0               	clrf	??___flmul+2
  2705     05E0  01C1               	clrf	??___flmul+3
  2706     05E1  083E               	movf	??___flmul,w
  2707     05E2  07C4               	addwf	___flmul@grs,f
  2708     05E3  083F               	movf	??___flmul+1,w
  2709     05E4  1103               	clrz
  2710     05E5  1803               	skipnc
  2711     05E6  3E01               	addlw	1
  2712     05E7  1903               	skipnz
  2713     05E8  2DEA               	goto	u1981
  2714     05E9  07C5               	addwf	___flmul@grs+1,f
  2715     05EA                     u1981:
  2716     05EA  0840               	movf	??___flmul+2,w
  2717     05EB  1103               	clrz
  2718     05EC  1803               	skipnc
  2719     05ED  3E01               	addlw	1
  2720     05EE  1903               	skipnz
  2721     05EF  2DF1               	goto	u1982
  2722     05F0  07C6               	addwf	___flmul@grs+2,f
  2723     05F1                     u1982:
  2724     05F1  0841               	movf	??___flmul+3,w
  2725     05F2  1103               	clrz
  2726     05F3  1803               	skipnc
  2727     05F4  3E01               	addlw	1
  2728     05F5  1903               	skipnz
  2729     05F6  2DF8               	goto	u1983
  2730     05F7  07C7               	addwf	___flmul@grs+3,f
  2731     05F8                     u1983:
  2732     05F8                     l1507:
  2733     05F8  0836               	movf	___flmul@b,w
  2734     05F9  00F0               	movwf	__Umul8_16@multiplicand
  2735     05FA  083B               	movf	___flmul@a+1,w
  2736     05FB  120A  158A  2736  120A  118A  	fcall	__Umul8_16
  2737     0600  0871               	movf	?__Umul8_16+1,w
  2738     0601  1283               	bcf	3,5	;RP0=0, select bank0
  2739     0602  1303               	bcf	3,6	;RP1=0, select bank0
  2740     0603  00CF               	movwf	___flmul@temp+1
  2741     0604  0870               	movf	?__Umul8_16,w
  2742     0605  00CE               	movwf	___flmul@temp
  2743     0606                     l1509:
  2744     0606  084E               	movf	___flmul@temp,w
  2745     0607  00BE               	movwf	??___flmul
  2746     0608  084F               	movf	___flmul@temp+1,w
  2747     0609  00BF               	movwf	??___flmul+1
  2748     060A  01C0               	clrf	??___flmul+2
  2749     060B  01C1               	clrf	??___flmul+3
  2750     060C  083E               	movf	??___flmul,w
  2751     060D  07C4               	addwf	___flmul@grs,f
  2752     060E  083F               	movf	??___flmul+1,w
  2753     060F  1103               	clrz
  2754     0610  1803               	skipnc
  2755     0611  3E01               	addlw	1
  2756     0612  1903               	skipnz
  2757     0613  2E15               	goto	u1991
  2758     0614  07C5               	addwf	___flmul@grs+1,f
  2759     0615                     u1991:
  2760     0615  0840               	movf	??___flmul+2,w
  2761     0616  1103               	clrz
  2762     0617  1803               	skipnc
  2763     0618  3E01               	addlw	1
  2764     0619  1903               	skipnz
  2765     061A  2E1C               	goto	u1992
  2766     061B  07C6               	addwf	___flmul@grs+2,f
  2767     061C                     u1992:
  2768     061C  0841               	movf	??___flmul+3,w
  2769     061D  1103               	clrz
  2770     061E  1803               	skipnc
  2771     061F  3E01               	addlw	1
  2772     0620  1903               	skipnz
  2773     0621  2E23               	goto	u1993
  2774     0622  07C7               	addwf	___flmul@grs+3,f
  2775     0623                     u1993:
  2776     0623                     l1511:
  2777     0623  3008               	movlw	8
  2778     0624  00BE               	movwf	??___flmul
  2779     0625                     u2005:
  2780     0625  1003               	clrc
  2781     0626  0DC4               	rlf	___flmul@grs,f
  2782     0627  0DC5               	rlf	___flmul@grs+1,f
  2783     0628  0DC6               	rlf	___flmul@grs+2,f
  2784     0629  0DC7               	rlf	___flmul@grs+3,f
  2785     062A  0BBE               	decfsz	??___flmul,f
  2786     062B  2E25               	goto	u2005
  2787     062C  0836               	movf	___flmul@b,w
  2788     062D  00F0               	movwf	__Umul8_16@multiplicand
  2789     062E  083A               	movf	___flmul@a,w
  2790     062F  120A  158A  2736  120A  118A  	fcall	__Umul8_16
  2791     0634  0871               	movf	?__Umul8_16+1,w
  2792     0635  1283               	bcf	3,5	;RP0=0, select bank0
  2793     0636  1303               	bcf	3,6	;RP1=0, select bank0
  2794     0637  00CF               	movwf	___flmul@temp+1
  2795     0638  0870               	movf	?__Umul8_16,w
  2796     0639  00CE               	movwf	___flmul@temp
  2797     063A                     l1513:
  2798     063A  084E               	movf	___flmul@temp,w
  2799     063B  00BE               	movwf	??___flmul
  2800     063C  084F               	movf	___flmul@temp+1,w
  2801     063D  00BF               	movwf	??___flmul+1
  2802     063E  01C0               	clrf	??___flmul+2
  2803     063F  01C1               	clrf	??___flmul+3
  2804     0640  083E               	movf	??___flmul,w
  2805     0641  07C4               	addwf	___flmul@grs,f
  2806     0642  083F               	movf	??___flmul+1,w
  2807     0643  1103               	clrz
  2808     0644  1803               	skipnc
  2809     0645  3E01               	addlw	1
  2810     0646  1903               	skipnz
  2811     0647  2E49               	goto	u2011
  2812     0648  07C5               	addwf	___flmul@grs+1,f
  2813     0649                     u2011:
  2814     0649  0840               	movf	??___flmul+2,w
  2815     064A  1103               	clrz
  2816     064B  1803               	skipnc
  2817     064C  3E01               	addlw	1
  2818     064D  1903               	skipnz
  2819     064E  2E50               	goto	u2012
  2820     064F  07C6               	addwf	___flmul@grs+2,f
  2821     0650                     u2012:
  2822     0650  0841               	movf	??___flmul+3,w
  2823     0651  1103               	clrz
  2824     0652  1803               	skipnc
  2825     0653  3E01               	addlw	1
  2826     0654  1903               	skipnz
  2827     0655  2E57               	goto	u2013
  2828     0656  07C7               	addwf	___flmul@grs+3,f
  2829     0657                     u2013:
  2830     0657                     l1515:
  2831     0657  0837               	movf	___flmul@b+1,w
  2832     0658  00F0               	movwf	__Umul8_16@multiplicand
  2833     0659  083C               	movf	___flmul@a+2,w
  2834     065A  120A  158A  2736  120A  118A  	fcall	__Umul8_16
  2835     065F  0871               	movf	?__Umul8_16+1,w
  2836     0660  1283               	bcf	3,5	;RP0=0, select bank0
  2837     0661  1303               	bcf	3,6	;RP1=0, select bank0
  2838     0662  00CF               	movwf	___flmul@temp+1
  2839     0663  0870               	movf	?__Umul8_16,w
  2840     0664  00CE               	movwf	___flmul@temp
  2841     0665  084E               	movf	___flmul@temp,w
  2842     0666  00BE               	movwf	??___flmul
  2843     0667  084F               	movf	___flmul@temp+1,w
  2844     0668  00BF               	movwf	??___flmul+1
  2845     0669  01C0               	clrf	??___flmul+2
  2846     066A  01C1               	clrf	??___flmul+3
  2847     066B  083E               	movf	??___flmul,w
  2848     066C  07CA               	addwf	___flmul@prod,f
  2849     066D  083F               	movf	??___flmul+1,w
  2850     066E  1103               	clrz
  2851     066F  1803               	skipnc
  2852     0670  3E01               	addlw	1
  2853     0671  1903               	skipnz
  2854     0672  2E74               	goto	u2021
  2855     0673  07CB               	addwf	___flmul@prod+1,f
  2856     0674                     u2021:
  2857     0674  0840               	movf	??___flmul+2,w
  2858     0675  1103               	clrz
  2859     0676  1803               	skipnc
  2860     0677  3E01               	addlw	1
  2861     0678  1903               	skipnz
  2862     0679  2E7B               	goto	u2022
  2863     067A  07CC               	addwf	___flmul@prod+2,f
  2864     067B                     u2022:
  2865     067B  0841               	movf	??___flmul+3,w
  2866     067C  1103               	clrz
  2867     067D  1803               	skipnc
  2868     067E  3E01               	addlw	1
  2869     067F  1903               	skipnz
  2870     0680  2E82               	goto	u2023
  2871     0681  07CD               	addwf	___flmul@prod+3,f
  2872     0682                     u2023:
  2873     0682                     l1517:
  2874     0682  0838               	movf	___flmul@b+2,w
  2875     0683  00F0               	movwf	__Umul8_16@multiplicand
  2876     0684  083B               	movf	___flmul@a+1,w
  2877     0685  120A  158A  2736  120A  118A  	fcall	__Umul8_16
  2878     068A  0871               	movf	?__Umul8_16+1,w
  2879     068B  1283               	bcf	3,5	;RP0=0, select bank0
  2880     068C  1303               	bcf	3,6	;RP1=0, select bank0
  2881     068D  00CF               	movwf	___flmul@temp+1
  2882     068E  0870               	movf	?__Umul8_16,w
  2883     068F  00CE               	movwf	___flmul@temp
  2884     0690                     l1519:
  2885     0690  084E               	movf	___flmul@temp,w
  2886     0691  00BE               	movwf	??___flmul
  2887     0692  084F               	movf	___flmul@temp+1,w
  2888     0693  00BF               	movwf	??___flmul+1
  2889     0694  01C0               	clrf	??___flmul+2
  2890     0695  01C1               	clrf	??___flmul+3
  2891     0696  083E               	movf	??___flmul,w
  2892     0697  07CA               	addwf	___flmul@prod,f
  2893     0698  083F               	movf	??___flmul+1,w
  2894     0699  1103               	clrz
  2895     069A  1803               	skipnc
  2896     069B  3E01               	addlw	1
  2897     069C  1903               	skipnz
  2898     069D  2E9F               	goto	u2031
  2899     069E  07CB               	addwf	___flmul@prod+1,f
  2900     069F                     u2031:
  2901     069F  0840               	movf	??___flmul+2,w
  2902     06A0  1103               	clrz
  2903     06A1  1803               	skipnc
  2904     06A2  3E01               	addlw	1
  2905     06A3  1903               	skipnz
  2906     06A4  2EA6               	goto	u2032
  2907     06A5  07CC               	addwf	___flmul@prod+2,f
  2908     06A6                     u2032:
  2909     06A6  0841               	movf	??___flmul+3,w
  2910     06A7  1103               	clrz
  2911     06A8  1803               	skipnc
  2912     06A9  3E01               	addlw	1
  2913     06AA  1903               	skipnz
  2914     06AB  2EAD               	goto	u2033
  2915     06AC  07CD               	addwf	___flmul@prod+3,f
  2916     06AD                     u2033:
  2917     06AD  0838               	movf	___flmul@b+2,w
  2918     06AE  00F0               	movwf	__Umul8_16@multiplicand
  2919     06AF  083C               	movf	___flmul@a+2,w
  2920     06B0  120A  158A  2736  120A  118A  	fcall	__Umul8_16
  2921     06B5  0871               	movf	?__Umul8_16+1,w
  2922     06B6  1283               	bcf	3,5	;RP0=0, select bank0
  2923     06B7  1303               	bcf	3,6	;RP1=0, select bank0
  2924     06B8  00CF               	movwf	___flmul@temp+1
  2925     06B9  0870               	movf	?__Umul8_16,w
  2926     06BA  00CE               	movwf	___flmul@temp
  2927     06BB                     l1521:
  2928     06BB  084E               	movf	___flmul@temp,w
  2929     06BC  00BE               	movwf	??___flmul
  2930     06BD  084F               	movf	___flmul@temp+1,w
  2931     06BE  00BF               	movwf	??___flmul+1
  2932     06BF  01C0               	clrf	??___flmul+2
  2933     06C0  01C1               	clrf	??___flmul+3
  2934     06C1  3008               	movlw	8
  2935     06C2                     u2045:
  2936     06C2  1003               	clrc
  2937     06C3  0DBE               	rlf	??___flmul,f
  2938     06C4  0DBF               	rlf	??___flmul+1,f
  2939     06C5  0DC0               	rlf	??___flmul+2,f
  2940     06C6  0DC1               	rlf	??___flmul+3,f
  2941     06C7                     u2040:
  2942     06C7  3EFF               	addlw	-1
  2943     06C8  1D03               	skipz
  2944     06C9  2EC2               	goto	u2045
  2945     06CA  083E               	movf	??___flmul,w
  2946     06CB  07CA               	addwf	___flmul@prod,f
  2947     06CC  083F               	movf	??___flmul+1,w
  2948     06CD  1103               	clrz
  2949     06CE  1803               	skipnc
  2950     06CF  3E01               	addlw	1
  2951     06D0  1903               	skipnz
  2952     06D1  2ED3               	goto	u2051
  2953     06D2  07CB               	addwf	___flmul@prod+1,f
  2954     06D3                     u2051:
  2955     06D3  0840               	movf	??___flmul+2,w
  2956     06D4  1103               	clrz
  2957     06D5  1803               	skipnc
  2958     06D6  3E01               	addlw	1
  2959     06D7  1903               	skipnz
  2960     06D8  2EDA               	goto	u2052
  2961     06D9  07CC               	addwf	___flmul@prod+2,f
  2962     06DA                     u2052:
  2963     06DA  0841               	movf	??___flmul+3,w
  2964     06DB  1103               	clrz
  2965     06DC  1803               	skipnc
  2966     06DD  3E01               	addlw	1
  2967     06DE  1903               	skipnz
  2968     06DF  2EE1               	goto	u2053
  2969     06E0  07CD               	addwf	___flmul@prod+3,f
  2970     06E1                     u2053:
  2971     06E1                     l1523:
  2972     06E1  0844               	movf	___flmul@grs,w
  2973     06E2  00BE               	movwf	??___flmul
  2974     06E3  0845               	movf	___flmul@grs+1,w
  2975     06E4  00BF               	movwf	??___flmul+1
  2976     06E5  0846               	movf	___flmul@grs+2,w
  2977     06E6  00C0               	movwf	??___flmul+2
  2978     06E7  0847               	movf	___flmul@grs+3,w
  2979     06E8  00C1               	movwf	??___flmul+3
  2980     06E9  3018               	movlw	24
  2981     06EA                     u2065:
  2982     06EA  1003               	clrc
  2983     06EB  0CC1               	rrf	??___flmul+3,f
  2984     06EC  0CC0               	rrf	??___flmul+2,f
  2985     06ED  0CBF               	rrf	??___flmul+1,f
  2986     06EE  0CBE               	rrf	??___flmul,f
  2987     06EF                     u2060:
  2988     06EF  3EFF               	addlw	-1
  2989     06F0  1D03               	skipz
  2990     06F1  2EEA               	goto	u2065
  2991     06F2  083E               	movf	??___flmul,w
  2992     06F3  07CA               	addwf	___flmul@prod,f
  2993     06F4  083F               	movf	??___flmul+1,w
  2994     06F5  1103               	clrz
  2995     06F6  1803               	skipnc
  2996     06F7  3E01               	addlw	1
  2997     06F8  1903               	skipnz
  2998     06F9  2EFB               	goto	u2071
  2999     06FA  07CB               	addwf	___flmul@prod+1,f
  3000     06FB                     u2071:
  3001     06FB  0840               	movf	??___flmul+2,w
  3002     06FC  1103               	clrz
  3003     06FD  1803               	skipnc
  3004     06FE  3E01               	addlw	1
  3005     06FF  1903               	skipnz
  3006     0700  2F02               	goto	u2072
  3007     0701  07CC               	addwf	___flmul@prod+2,f
  3008     0702                     u2072:
  3009     0702  0841               	movf	??___flmul+3,w
  3010     0703  1103               	clrz
  3011     0704  1803               	skipnc
  3012     0705  3E01               	addlw	1
  3013     0706  1903               	skipnz
  3014     0707  2F09               	goto	u2073
  3015     0708  07CD               	addwf	___flmul@prod+3,f
  3016     0709                     u2073:
  3017     0709                     l1525:
  3018     0709  3008               	movlw	8
  3019     070A  00BE               	movwf	??___flmul
  3020     070B                     u2085:
  3021     070B  1003               	clrc
  3022     070C  0DC4               	rlf	___flmul@grs,f
  3023     070D  0DC5               	rlf	___flmul@grs+1,f
  3024     070E  0DC6               	rlf	___flmul@grs+2,f
  3025     070F  0DC7               	rlf	___flmul@grs+3,f
  3026     0710  0BBE               	decfsz	??___flmul,f
  3027     0711  2F0B               	goto	u2085
  3028     0712                     l1527:
  3029     0712  0849               	movf	___flmul@bexp,w
  3030     0713  0748               	addwf	___flmul@aexp,w
  3031     0714  00BE               	movwf	??___flmul
  3032     0715  01BF               	clrf	??___flmul+1
  3033     0716  0DBF               	rlf	??___flmul+1,f
  3034     0717  083E               	movf	??___flmul,w
  3035     0718  3E82               	addlw	130
  3036     0719  00CE               	movwf	___flmul@temp
  3037     071A  083F               	movf	??___flmul+1,w
  3038     071B  1803               	skipnc
  3039     071C  3E01               	addlw	1
  3040     071D  3EFF               	addlw	255
  3041     071E  00CF               	movwf	___flmul@temp+1
  3042     071F  2F3D               	goto	l1539
  3043     0720                     l1529:
  3044     0720  3001               	movlw	1
  3045     0721  00BE               	movwf	??___flmul
  3046     0722                     u2095:
  3047     0722  1003               	clrc
  3048     0723  0DCA               	rlf	___flmul@prod,f
  3049     0724  0DCB               	rlf	___flmul@prod+1,f
  3050     0725  0DCC               	rlf	___flmul@prod+2,f
  3051     0726  0DCD               	rlf	___flmul@prod+3,f
  3052     0727  0BBE               	decfsz	??___flmul,f
  3053     0728  2F22               	goto	u2095
  3054     0729                     l1531:
  3055     0729  1FC7               	btfss	___flmul@grs+3,7
  3056     072A  2F2C               	goto	u2101
  3057     072B  2F2D               	goto	u2100
  3058     072C                     u2101:
  3059     072C  2F2E               	goto	l1535
  3060     072D                     u2100:
  3061     072D                     l1533:
  3062     072D  144A               	bsf	___flmul@prod,0
  3063     072E                     l1535:
  3064     072E  3001               	movlw	1
  3065     072F  00BE               	movwf	??___flmul
  3066     0730                     u2115:
  3067     0730  1003               	clrc
  3068     0731  0DC4               	rlf	___flmul@grs,f
  3069     0732  0DC5               	rlf	___flmul@grs+1,f
  3070     0733  0DC6               	rlf	___flmul@grs+2,f
  3071     0734  0DC7               	rlf	___flmul@grs+3,f
  3072     0735  0BBE               	decfsz	??___flmul,f
  3073     0736  2F30               	goto	u2115
  3074     0737                     l1537:
  3075     0737  30FF               	movlw	255
  3076     0738  07CE               	addwf	___flmul@temp,f
  3077     0739  1803               	skipnc
  3078     073A  0ACF               	incf	___flmul@temp+1,f
  3079     073B  30FF               	movlw	255
  3080     073C  07CF               	addwf	___flmul@temp+1,f
  3081     073D                     l1539:
  3082     073D  1FCC               	btfss	___flmul@prod+2,7
  3083     073E  2F40               	goto	u2121
  3084     073F  2F41               	goto	u2120
  3085     0740                     u2121:
  3086     0740  2F20               	goto	l1529
  3087     0741                     u2120:
  3088     0741                     l1541:
  3089     0741  01C8               	clrf	___flmul@aexp
  3090     0742                     l1543:
  3091     0742  1FC7               	btfss	___flmul@grs+3,7
  3092     0743  2F45               	goto	u2131
  3093     0744  2F46               	goto	u2130
  3094     0745                     u2131:
  3095     0745  2F62               	goto	l1551
  3096     0746                     u2130:
  3097     0746                     l1545:
  3098     0746  30FF               	movlw	255
  3099     0747  0544               	andwf	___flmul@grs,w
  3100     0748  00BE               	movwf	??___flmul
  3101     0749  30FF               	movlw	255
  3102     074A  0545               	andwf	___flmul@grs+1,w
  3103     074B  00BF               	movwf	??___flmul+1
  3104     074C  30FF               	movlw	255
  3105     074D  0546               	andwf	___flmul@grs+2,w
  3106     074E  00C0               	movwf	??___flmul+2
  3107     074F  307F               	movlw	127
  3108     0750  0547               	andwf	___flmul@grs+3,w
  3109     0751  00C1               	movwf	??___flmul+3
  3110     0752  0841               	movf	??___flmul+3,w
  3111     0753  0440               	iorwf	??___flmul+2,w
  3112     0754  043F               	iorwf	??___flmul+1,w
  3113     0755  043E               	iorwf	??___flmul,w
  3114     0756  1903               	skipnz
  3115     0757  2F59               	goto	u2141
  3116     0758  2F5A               	goto	u2140
  3117     0759                     u2141:
  3118     0759  2F5D               	goto	l532
  3119     075A                     u2140:
  3120     075A                     l1547:
  3121     075A  01C8               	clrf	___flmul@aexp
  3122     075B  0AC8               	incf	___flmul@aexp,f
  3123     075C  2F62               	goto	l1551
  3124     075D                     l532:
  3125     075D  1C4A               	btfss	___flmul@prod,0
  3126     075E  2F60               	goto	u2151
  3127     075F  2F61               	goto	u2150
  3128     0760                     u2151:
  3129     0760  2F62               	goto	l1551
  3130     0761                     u2150:
  3131     0761  2F5A               	goto	l1547
  3132     0762                     l1551:
  3133     0762  0848               	movf	___flmul@aexp,w
  3134     0763  1903               	btfsc	3,2
  3135     0764  2F66               	goto	u2161
  3136     0765  2F67               	goto	u2160
  3137     0766                     u2161:
  3138     0766  2F98               	goto	l1561
  3139     0767                     u2160:
  3140     0767                     l1553:
  3141     0767  3001               	movlw	1
  3142     0768  07CA               	addwf	___flmul@prod,f
  3143     0769  3000               	movlw	0
  3144     076A  1803               	skipnc
  3145     076B  3001               	movlw	1
  3146     076C  07CB               	addwf	___flmul@prod+1,f
  3147     076D  3000               	movlw	0
  3148     076E  1803               	skipnc
  3149     076F  3001               	movlw	1
  3150     0770  07CC               	addwf	___flmul@prod+2,f
  3151     0771  3000               	movlw	0
  3152     0772  1803               	skipnc
  3153     0773  3001               	movlw	1
  3154     0774  07CD               	addwf	___flmul@prod+3,f
  3155     0775                     l1555:
  3156     0775  1C4D               	btfss	___flmul@prod+3,0
  3157     0776  2F78               	goto	u2171
  3158     0777  2F79               	goto	u2170
  3159     0778                     u2171:
  3160     0778  2F98               	goto	l1561
  3161     0779                     u2170:
  3162     0779                     l1557:
  3163     0779  084A               	movf	___flmul@prod,w
  3164     077A  00BE               	movwf	??___flmul
  3165     077B  084B               	movf	___flmul@prod+1,w
  3166     077C  00BF               	movwf	??___flmul+1
  3167     077D  084C               	movf	___flmul@prod+2,w
  3168     077E  00C0               	movwf	??___flmul+2
  3169     077F  084D               	movf	___flmul@prod+3,w
  3170     0780  00C1               	movwf	??___flmul+3
  3171     0781  3001               	movlw	1
  3172     0782  00C2               	movwf	??___flmul+4
  3173     0783                     u2185:
  3174     0783  0D41               	rlf	??___flmul+3,w
  3175     0784  0CC1               	rrf	??___flmul+3,f
  3176     0785  0CC0               	rrf	??___flmul+2,f
  3177     0786  0CBF               	rrf	??___flmul+1,f
  3178     0787  0CBE               	rrf	??___flmul,f
  3179     0788                     u2180:
  3180     0788  0BC2               	decfsz	??___flmul+4,f
  3181     0789  2F83               	goto	u2185
  3182     078A  0841               	movf	??___flmul+3,w
  3183     078B  00CD               	movwf	___flmul@prod+3
  3184     078C  0840               	movf	??___flmul+2,w
  3185     078D  00CC               	movwf	___flmul@prod+2
  3186     078E  083F               	movf	??___flmul+1,w
  3187     078F  00CB               	movwf	___flmul@prod+1
  3188     0790  083E               	movf	??___flmul,w
  3189     0791  00CA               	movwf	___flmul@prod
  3190     0792                     l1559:
  3191     0792  3001               	movlw	1
  3192     0793  07CE               	addwf	___flmul@temp,f
  3193     0794  1803               	skipnc
  3194     0795  0ACF               	incf	___flmul@temp+1,f
  3195     0796  3000               	movlw	0
  3196     0797  07CF               	addwf	___flmul@temp+1,f
  3197     0798                     l1561:
  3198     0798  084F               	movf	___flmul@temp+1,w
  3199     0799  3A80               	xorlw	128
  3200     079A  00FF               	movwf	btemp+1
  3201     079B  3080               	movlw	128
  3202     079C  027F               	subwf	btemp+1,w
  3203     079D  1D03               	skipz
  3204     079E  2FA1               	goto	u2195
  3205     079F  30FF               	movlw	255
  3206     07A0  024E               	subwf	___flmul@temp,w
  3207     07A1                     u2195:
  3208     07A1  1C03               	skipc
  3209     07A2  2FA4               	goto	u2191
  3210     07A3  2FA5               	goto	u2190
  3211     07A4                     u2191:
  3212     07A4  2FB0               	goto	l1565
  3213     07A5                     u2190:
  3214     07A5                     l1563:
  3215     07A5  307F               	movlw	127
  3216     07A6  1283               	bcf	3,5	;RP0=0, select bank0
  3217     07A7  1303               	bcf	3,6	;RP1=0, select bank0
  3218     07A8  00CD               	movwf	___flmul@prod+3
  3219     07A9  3080               	movlw	128
  3220     07AA  00CC               	movwf	___flmul@prod+2
  3221     07AB  3000               	movlw	0
  3222     07AC  00CB               	movwf	___flmul@prod+1
  3223     07AD  3000               	movlw	0
  3224     07AE  00CA               	movwf	___flmul@prod
  3225     07AF  2FE1               	goto	l1579
  3226     07B0                     l1565:
  3227     07B0  1283               	bcf	3,5	;RP0=0, select bank0
  3228     07B1  1303               	bcf	3,6	;RP1=0, select bank0
  3229     07B2  084F               	movf	___flmul@temp+1,w
  3230     07B3  3A80               	xorlw	128
  3231     07B4  00FF               	movwf	btemp+1
  3232     07B5  3080               	movlw	128
  3233     07B6  027F               	subwf	btemp+1,w
  3234     07B7  1D03               	skipz
  3235     07B8  2FBB               	goto	u2205
  3236     07B9  3001               	movlw	1
  3237     07BA  024E               	subwf	___flmul@temp,w
  3238     07BB                     u2205:
  3239     07BB  1803               	skipnc
  3240     07BC  2FBE               	goto	u2201
  3241     07BD  2FBF               	goto	u2200
  3242     07BE                     u2201:
  3243     07BE  2FCB               	goto	l1571
  3244     07BF                     u2200:
  3245     07BF                     l1567:
  3246     07BF  3000               	movlw	0
  3247     07C0  1283               	bcf	3,5	;RP0=0, select bank0
  3248     07C1  1303               	bcf	3,6	;RP1=0, select bank0
  3249     07C2  00CD               	movwf	___flmul@prod+3
  3250     07C3  3000               	movlw	0
  3251     07C4  00CC               	movwf	___flmul@prod+2
  3252     07C5  3000               	movlw	0
  3253     07C6  00CB               	movwf	___flmul@prod+1
  3254     07C7  3000               	movlw	0
  3255     07C8  00CA               	movwf	___flmul@prod
  3256     07C9                     l1569:
  3257     07C9  01C3               	clrf	___flmul@sign
  3258     07CA  2FE1               	goto	l1579
  3259     07CB                     l1571:
  3260     07CB  1283               	bcf	3,5	;RP0=0, select bank0
  3261     07CC  1303               	bcf	3,6	;RP1=0, select bank0
  3262     07CD  084E               	movf	___flmul@temp,w
  3263     07CE  00C9               	movwf	___flmul@bexp
  3264     07CF  30FF               	movlw	255
  3265     07D0  05CA               	andwf	___flmul@prod,f
  3266     07D1  30FF               	movlw	255
  3267     07D2  05CB               	andwf	___flmul@prod+1,f
  3268     07D3  307F               	movlw	127
  3269     07D4  05CC               	andwf	___flmul@prod+2,f
  3270     07D5  3000               	movlw	0
  3271     07D6  05CD               	andwf	___flmul@prod+3,f
  3272     07D7                     l1573:
  3273     07D7  1C49               	btfss	___flmul@bexp,0
  3274     07D8  2FDA               	goto	u2211
  3275     07D9  2FDB               	goto	u2210
  3276     07DA                     u2211:
  3277     07DA  2FDC               	goto	l1577
  3278     07DB                     u2210:
  3279     07DB                     l1575:
  3280     07DB  17CC               	bsf	___flmul@prod+2,7
  3281     07DC                     l1577:
  3282     07DC  0849               	movf	___flmul@bexp,w
  3283     07DD  00BE               	movwf	??___flmul
  3284     07DE  1003               	clrc
  3285     07DF  0C3E               	rrf	??___flmul,w
  3286     07E0  00CD               	movwf	___flmul@prod+3
  3287     07E1                     l1579:
  3288     07E1  0843               	movf	___flmul@sign,w
  3289     07E2  00FF               	movwf	btemp+1
  3290     07E3  087F               	movf	btemp+1,w
  3291     07E4  04CD               	iorwf	___flmul@prod+3,f
  3292     07E5                     l1581:
  3293     07E5  084D               	movf	___flmul@prod+3,w
  3294     07E6  00B9               	movwf	?___flmul+3
  3295     07E7  084C               	movf	___flmul@prod+2,w
  3296     07E8  00B8               	movwf	?___flmul+2
  3297     07E9  084B               	movf	___flmul@prod+1,w
  3298     07EA  00B7               	movwf	?___flmul+1
  3299     07EB  084A               	movf	___flmul@prod,w
  3300     07EC  00B6               	movwf	?___flmul
  3301     07ED                     l526:
  3302     07ED  0008               	return
  3303     07EE                     __end_of___flmul:
  3304                           
  3305                           	psect	text7
  3306     0F36                     __ptext7:	
  3307 ;; *************** function __Umul8_16 *****************
  3308 ;; Defined at:
  3309 ;;		line 4 in file "C:\Program Files\Microchip\xc8\v2.41\pic\sources\c90\common\Umul8_16.c"
  3310 ;; Parameters:    Size  Location     Type
  3311 ;;  multiplier      1    wreg     unsigned char 
  3312 ;;  multiplicand    1    0[COMMON] unsigned char 
  3313 ;; Auto vars:     Size  Location     Type
  3314 ;;  multiplier      1    8[COMMON] unsigned char 
  3315 ;;  word_mpld       2    6[COMMON] unsigned int 
  3316 ;;  product         2    4[COMMON] unsigned int 
  3317 ;; Return value:  Size  Location     Type
  3318 ;;                  2    0[COMMON] unsigned int 
  3319 ;; Registers used:
  3320 ;;		wreg, status,2, status,0
  3321 ;; Tracked objects:
  3322 ;;		On entry : 0/0
  3323 ;;		On exit  : 0/0
  3324 ;;		Unchanged: 0/0
  3325 ;; Data sizes:     COMMON   BANK0   BANK1   BANK3   BANK2
  3326 ;;      Params:         2       0       0       0       0
  3327 ;;      Locals:         5       0       0       0       0
  3328 ;;      Temps:          2       0       0       0       0
  3329 ;;      Totals:         9       0       0       0       0
  3330 ;;Total ram usage:        9 bytes
  3331 ;; Hardware stack levels used: 1
  3332 ;; This function calls:
  3333 ;;		Nothing
  3334 ;; This function is called by:
  3335 ;;		___flmul
  3336 ;; This function uses a non-reentrant model
  3337 ;;
  3338                           
  3339     0F36                     __Umul8_16:	
  3340                           ;psect for function __Umul8_16
  3341                           
  3342                           
  3343                           ;incstack = 0
  3344                           ; Regs used in __Umul8_16: [wreg+status,2+status,0]
  3345                           ;__Umul8_16@multiplier stored from wreg
  3346     0F36  00F8               	movwf	__Umul8_16@multiplier
  3347     0F37                     l1385:
  3348     0F37  01F4               	clrf	__Umul8_16@product
  3349     0F38  01F5               	clrf	__Umul8_16@product+1
  3350     0F39                     l1387:
  3351     0F39  0870               	movf	__Umul8_16@multiplicand,w
  3352     0F3A  00F2               	movwf	??__Umul8_16
  3353     0F3B  01F3               	clrf	??__Umul8_16+1
  3354     0F3C  0872               	movf	??__Umul8_16,w
  3355     0F3D  00F6               	movwf	__Umul8_16@word_mpld
  3356     0F3E  0873               	movf	??__Umul8_16+1,w
  3357     0F3F  00F7               	movwf	__Umul8_16@word_mpld+1
  3358     0F40                     l1389:
  3359     0F40  1C78               	btfss	__Umul8_16@multiplier,0
  3360     0F41  2F43               	goto	u1721
  3361     0F42  2F44               	goto	u1720
  3362     0F43                     u1721:
  3363     0F43  2F4A               	goto	l545
  3364     0F44                     u1720:
  3365     0F44                     l1391:
  3366     0F44  0876               	movf	__Umul8_16@word_mpld,w
  3367     0F45  07F4               	addwf	__Umul8_16@product,f
  3368     0F46  1803               	skipnc
  3369     0F47  0AF5               	incf	__Umul8_16@product+1,f
  3370     0F48  0877               	movf	__Umul8_16@word_mpld+1,w
  3371     0F49  07F5               	addwf	__Umul8_16@product+1,f
  3372     0F4A                     l545:
  3373     0F4A  3001               	movlw	1
  3374     0F4B                     u1735:
  3375     0F4B  1003               	clrc
  3376     0F4C  0DF6               	rlf	__Umul8_16@word_mpld,f
  3377     0F4D  0DF7               	rlf	__Umul8_16@word_mpld+1,f
  3378     0F4E  3EFF               	addlw	-1
  3379     0F4F  1D03               	skipz
  3380     0F50  2F4B               	goto	u1735
  3381     0F51  1003               	clrc
  3382     0F52  0CF8               	rrf	__Umul8_16@multiplier,f
  3383     0F53                     l1393:
  3384     0F53  0878               	movf	__Umul8_16@multiplier,w
  3385     0F54  1D03               	btfss	3,2
  3386     0F55  2F57               	goto	u1741
  3387     0F56  2F58               	goto	u1740
  3388     0F57                     u1741:
  3389     0F57  2F40               	goto	l1389
  3390     0F58                     u1740:
  3391     0F58                     l1395:
  3392     0F58  0875               	movf	__Umul8_16@product+1,w
  3393     0F59  00F1               	movwf	?__Umul8_16+1
  3394     0F5A  0874               	movf	__Umul8_16@product,w
  3395     0F5B  00F0               	movwf	?__Umul8_16
  3396     0F5C                     l547:
  3397     0F5C  0008               	return
  3398     0F5D                     __end_of__Umul8_16:
  3399                           
  3400                           	psect	text8
  3401     0F11                     __ptext8:	
  3402 ;; *************** function ___wmul *****************
  3403 ;; Defined at:
  3404 ;;		line 15 in file "C:\Program Files\Microchip\xc8\v2.41\pic\sources\c90\common\Umul16.c"
  3405 ;; Parameters:    Size  Location     Type
  3406 ;;  multiplier      2    0[COMMON] unsigned int 
  3407 ;;  multiplicand    2    2[COMMON] unsigned int 
  3408 ;; Auto vars:     Size  Location     Type
  3409 ;;  product         2    4[COMMON] unsigned int 
  3410 ;; Return value:  Size  Location     Type
  3411 ;;                  2    0[COMMON] unsigned int 
  3412 ;; Registers used:
  3413 ;;		wreg, status,2, status,0
  3414 ;; Tracked objects:
  3415 ;;		On entry : 0/0
  3416 ;;		On exit  : 0/0
  3417 ;;		Unchanged: 0/0
  3418 ;; Data sizes:     COMMON   BANK0   BANK1   BANK3   BANK2
  3419 ;;      Params:         4       0       0       0       0
  3420 ;;      Locals:         2       0       0       0       0
  3421 ;;      Temps:          0       0       0       0       0
  3422 ;;      Totals:         6       0       0       0       0
  3423 ;;Total ram usage:        6 bytes
  3424 ;; Hardware stack levels used: 1
  3425 ;; This function calls:
  3426 ;;		Nothing
  3427 ;; This function is called by:
  3428 ;;		_main
  3429 ;; This function uses a non-reentrant model
  3430 ;;
  3431                           
  3432     0F11                     ___wmul:	
  3433                           ;psect for function ___wmul
  3434                           
  3435     0F11                     l1675:	
  3436                           ;incstack = 0
  3437                           ; Regs used in ___wmul: [wreg+status,2+status,0]
  3438                           
  3439     0F11  01F4               	clrf	___wmul@product
  3440     0F12  01F5               	clrf	___wmul@product+1
  3441     0F13                     l1677:
  3442     0F13  1C70               	btfss	___wmul@multiplier,0
  3443     0F14  2F16               	goto	u2401
  3444     0F15  2F17               	goto	u2400
  3445     0F16                     u2401:
  3446     0F16  2F1D               	goto	l137
  3447     0F17                     u2400:
  3448     0F17                     l1679:
  3449     0F17  0872               	movf	___wmul@multiplicand,w
  3450     0F18  07F4               	addwf	___wmul@product,f
  3451     0F19  1803               	skipnc
  3452     0F1A  0AF5               	incf	___wmul@product+1,f
  3453     0F1B  0873               	movf	___wmul@multiplicand+1,w
  3454     0F1C  07F5               	addwf	___wmul@product+1,f
  3455     0F1D                     l137:
  3456     0F1D  3001               	movlw	1
  3457     0F1E                     u2415:
  3458     0F1E  1003               	clrc
  3459     0F1F  0DF2               	rlf	___wmul@multiplicand,f
  3460     0F20  0DF3               	rlf	___wmul@multiplicand+1,f
  3461     0F21  3EFF               	addlw	-1
  3462     0F22  1D03               	skipz
  3463     0F23  2F1E               	goto	u2415
  3464     0F24                     l1681:
  3465     0F24  3001               	movlw	1
  3466     0F25                     u2425:
  3467     0F25  1003               	clrc
  3468     0F26  0CF1               	rrf	___wmul@multiplier+1,f
  3469     0F27  0CF0               	rrf	___wmul@multiplier,f
  3470     0F28  3EFF               	addlw	-1
  3471     0F29  1D03               	skipz
  3472     0F2A  2F25               	goto	u2425
  3473     0F2B                     l1683:
  3474     0F2B  0870               	movf	___wmul@multiplier,w
  3475     0F2C  0471               	iorwf	___wmul@multiplier+1,w
  3476     0F2D  1D03               	btfss	3,2
  3477     0F2E  2F30               	goto	u2431
  3478     0F2F  2F31               	goto	u2430
  3479     0F30                     u2431:
  3480     0F30  2F13               	goto	l1677
  3481     0F31                     u2430:
  3482     0F31                     l1685:
  3483     0F31  0875               	movf	___wmul@product+1,w
  3484     0F32  00F1               	movwf	?___wmul+1
  3485     0F33  0874               	movf	___wmul@product,w
  3486     0F34  00F0               	movwf	?___wmul
  3487     0F35                     l139:
  3488     0F35  0008               	return
  3489     0F36                     __end_of___wmul:
  3490                           
  3491                           	psect	text9
  3492     0026                     __ptext9:	
  3493 ;; *************** function ___lwdiv *****************
  3494 ;; Defined at:
  3495 ;;		line 5 in file "C:\Program Files\Microchip\xc8\v2.41\pic\sources\c90\common\lwdiv.c"
  3496 ;; Parameters:    Size  Location     Type
  3497 ;;  divisor         2    6[COMMON] unsigned int 
  3498 ;;  dividend        2    8[COMMON] unsigned int 
  3499 ;; Auto vars:     Size  Location     Type
  3500 ;;  quotient        2   10[COMMON] unsigned int 
  3501 ;;  counter         1   12[COMMON] unsigned char 
  3502 ;; Return value:  Size  Location     Type
  3503 ;;                  2    6[COMMON] unsigned int 
  3504 ;; Registers used:
  3505 ;;		wreg, status,2, status,0, btemp+1
  3506 ;; Tracked objects:
  3507 ;;		On entry : 0/0
  3508 ;;		On exit  : 0/0
  3509 ;;		Unchanged: 0/0
  3510 ;; Data sizes:     COMMON   BANK0   BANK1   BANK3   BANK2
  3511 ;;      Params:         4       0       0       0       0
  3512 ;;      Locals:         3       0       0       0       0
  3513 ;;      Temps:          0       0       0       0       0
  3514 ;;      Totals:         7       0       0       0       0
  3515 ;;Total ram usage:        7 bytes
  3516 ;; Hardware stack levels used: 1
  3517 ;; This function calls:
  3518 ;;		Nothing
  3519 ;; This function is called by:
  3520 ;;		_main
  3521 ;; This function uses a non-reentrant model
  3522 ;;
  3523                           
  3524     0026                     ___lwdiv:	
  3525                           ;psect for function ___lwdiv
  3526                           
  3527     0026                     l1689:	
  3528                           ;incstack = 0
  3529                           ; Regs used in ___lwdiv: [wreg+status,2+status,0+btemp+1]
  3530                           
  3531     0026  01FA               	clrf	___lwdiv@quotient
  3532     0027  01FB               	clrf	___lwdiv@quotient+1
  3533     0028                     l1691:
  3534     0028  0876               	movf	___lwdiv@divisor,w
  3535     0029  0477               	iorwf	___lwdiv@divisor+1,w
  3536     002A  1903               	btfsc	3,2
  3537     002B  282D               	goto	u2441
  3538     002C  282E               	goto	u2440
  3539     002D                     u2441:
  3540     002D  2865               	goto	l1711
  3541     002E                     u2440:
  3542     002E                     l1693:
  3543     002E  01FC               	clrf	___lwdiv@counter
  3544     002F  0AFC               	incf	___lwdiv@counter,f
  3545     0030  283C               	goto	l1699
  3546     0031                     l1695:
  3547     0031  3001               	movlw	1
  3548     0032                     u2455:
  3549     0032  1003               	clrc
  3550     0033  0DF6               	rlf	___lwdiv@divisor,f
  3551     0034  0DF7               	rlf	___lwdiv@divisor+1,f
  3552     0035  3EFF               	addlw	-1
  3553     0036  1D03               	skipz
  3554     0037  2832               	goto	u2455
  3555     0038                     l1697:
  3556     0038  3001               	movlw	1
  3557     0039  00FF               	movwf	btemp+1
  3558     003A  087F               	movf	btemp+1,w
  3559     003B  07FC               	addwf	___lwdiv@counter,f
  3560     003C                     l1699:
  3561     003C  1FF7               	btfss	___lwdiv@divisor+1,7
  3562     003D  283F               	goto	u2461
  3563     003E  2840               	goto	u2460
  3564     003F                     u2461:
  3565     003F  2831               	goto	l1695
  3566     0040                     u2460:
  3567     0040                     l1701:
  3568     0040  3001               	movlw	1
  3569     0041                     u2475:
  3570     0041  1003               	clrc
  3571     0042  0DFA               	rlf	___lwdiv@quotient,f
  3572     0043  0DFB               	rlf	___lwdiv@quotient+1,f
  3573     0044  3EFF               	addlw	-1
  3574     0045  1D03               	skipz
  3575     0046  2841               	goto	u2475
  3576     0047  0877               	movf	___lwdiv@divisor+1,w
  3577     0048  0279               	subwf	___lwdiv@dividend+1,w
  3578     0049  1D03               	skipz
  3579     004A  284D               	goto	u2485
  3580     004B  0876               	movf	___lwdiv@divisor,w
  3581     004C  0278               	subwf	___lwdiv@dividend,w
  3582     004D                     u2485:
  3583     004D  1C03               	skipc
  3584     004E  2850               	goto	u2481
  3585     004F  2851               	goto	u2480
  3586     0050                     u2481:
  3587     0050  2858               	goto	l1707
  3588     0051                     u2480:
  3589     0051                     l1703:
  3590     0051  0876               	movf	___lwdiv@divisor,w
  3591     0052  02F8               	subwf	___lwdiv@dividend,f
  3592     0053  0877               	movf	___lwdiv@divisor+1,w
  3593     0054  1C03               	skipc
  3594     0055  03F9               	decf	___lwdiv@dividend+1,f
  3595     0056  02F9               	subwf	___lwdiv@dividend+1,f
  3596     0057                     l1705:
  3597     0057  147A               	bsf	___lwdiv@quotient,0
  3598     0058                     l1707:
  3599     0058  3001               	movlw	1
  3600     0059                     u2495:
  3601     0059  1003               	clrc
  3602     005A  0CF7               	rrf	___lwdiv@divisor+1,f
  3603     005B  0CF6               	rrf	___lwdiv@divisor,f
  3604     005C  3EFF               	addlw	-1
  3605     005D  1D03               	skipz
  3606     005E  2859               	goto	u2495
  3607     005F                     l1709:
  3608     005F  3001               	movlw	1
  3609     0060  02FC               	subwf	___lwdiv@counter,f
  3610     0061  1D03               	btfss	3,2
  3611     0062  2864               	goto	u2501
  3612     0063  2865               	goto	u2500
  3613     0064                     u2501:
  3614     0064  2840               	goto	l1701
  3615     0065                     u2500:
  3616     0065                     l1711:
  3617     0065  087B               	movf	___lwdiv@quotient+1,w
  3618     0066  00F7               	movwf	?___lwdiv+1
  3619     0067  087A               	movf	___lwdiv@quotient,w
  3620     0068  00F6               	movwf	?___lwdiv
  3621     0069                     l409:
  3622     0069  0008               	return
  3623     006A                     __end_of___lwdiv:
  3624                           
  3625                           	psect	text10
  3626     0F5D                     __ptext10:	
  3627 ;; *************** function _ADC_Read *****************
  3628 ;; Defined at:
  3629 ;;		line 22 in file "bienap.c"
  3630 ;; Parameters:    Size  Location     Type
  3631 ;;  channel         2    0[COMMON] int 
  3632 ;; Auto vars:     Size  Location     Type
  3633 ;;		None
  3634 ;; Return value:  Size  Location     Type
  3635 ;;                  2    0[COMMON] unsigned int 
  3636 ;; Registers used:
  3637 ;;		wreg, status,2, status,0, btemp+1
  3638 ;; Tracked objects:
  3639 ;;		On entry : 0/0
  3640 ;;		On exit  : 0/0
  3641 ;;		Unchanged: 0/0
  3642 ;; Data sizes:     COMMON   BANK0   BANK1   BANK3   BANK2
  3643 ;;      Params:         2       0       0       0       0
  3644 ;;      Locals:         0       0       0       0       0
  3645 ;;      Temps:          2       0       0       0       0
  3646 ;;      Totals:         4       0       0       0       0
  3647 ;;Total ram usage:        4 bytes
  3648 ;; Hardware stack levels used: 1
  3649 ;; This function calls:
  3650 ;;		Nothing
  3651 ;; This function is called by:
  3652 ;;		_main
  3653 ;; This function uses a non-reentrant model
  3654 ;;
  3655                           
  3656     0F5D                     _ADC_Read:	
  3657                           ;psect for function _ADC_Read
  3658                           
  3659     0F5D                     l1635:	
  3660                           ;incstack = 0
  3661                           ; Regs used in _ADC_Read: [wreg+status,2+status,0+btemp+1]
  3662                           
  3663                           
  3664                           ;bienap.c: 23:     if (channel > 7)
  3665     0F5D  0871               	movf	ADC_Read@channel+1,w
  3666     0F5E  3A80               	xorlw	128
  3667     0F5F  00FF               	movwf	btemp+1
  3668     0F60  3080               	movlw	128
  3669     0F61  027F               	subwf	btemp+1,w
  3670     0F62  1D03               	skipz
  3671     0F63  2F66               	goto	u2365
  3672     0F64  3008               	movlw	8
  3673     0F65  0270               	subwf	ADC_Read@channel,w
  3674     0F66                     u2365:
  3675     0F66  1C03               	skipc
  3676     0F67  2F69               	goto	u2361
  3677     0F68  2F6A               	goto	u2360
  3678     0F69                     u2361:
  3679     0F69  2F6D               	goto	l1641
  3680     0F6A                     u2360:
  3681     0F6A                     l1637:
  3682                           
  3683                           ;bienap.c: 24:         return 0;
  3684     0F6A  01F0               	clrf	?_ADC_Read
  3685     0F6B  01F1               	clrf	?_ADC_Read+1
  3686     0F6C  2F96               	goto	l35
  3687     0F6D                     l1641:
  3688                           
  3689                           ;bienap.c: 25:     ADCON0 &= 0xC5;
  3690     0F6D  30C5               	movlw	197
  3691     0F6E  00FF               	movwf	btemp+1
  3692     0F6F  087F               	movf	btemp+1,w
  3693     0F70  1283               	bcf	3,5	;RP0=0, select bank0
  3694     0F71  1303               	bcf	3,6	;RP1=0, select bank0
  3695     0F72  059F               	andwf	31,f	;volatile
  3696                           
  3697                           ;bienap.c: 26:     ADCON0 |= (channel << 3);
  3698     0F73  0870               	movf	ADC_Read@channel,w	;volatile
  3699     0F74  00F2               	movwf	??_ADC_Read
  3700     0F75  3002               	movlw	2
  3701     0F76                     u2375:
  3702     0F76  1003               	clrc
  3703     0F77  0DF2               	rlf	??_ADC_Read,f
  3704     0F78  3EFF               	addlw	-1
  3705     0F79  1D03               	skipz
  3706     0F7A  2F76               	goto	u2375
  3707     0F7B  1003               	clrc
  3708     0F7C  0D72               	rlf	??_ADC_Read,w
  3709     0F7D  00FF               	movwf	btemp+1
  3710     0F7E  087F               	movf	btemp+1,w
  3711     0F7F  049F               	iorwf	31,f	;volatile
  3712     0F80                     l1643:
  3713                           
  3714                           ;bienap.c: 27:     _delay((unsigned long)((2)*(20000000/4000.0)));
  3715     0F80  300D               	movlw	13
  3716     0F81  00F3               	movwf	??_ADC_Read+1
  3717     0F82  30FB               	movlw	251
  3718     0F83  00F2               	movwf	??_ADC_Read
  3719     0F84                     u2537:
  3720     0F84  0BF2               	decfsz	??_ADC_Read,f
  3721     0F85  2F84               	goto	u2537
  3722     0F86  0BF3               	decfsz	??_ADC_Read+1,f
  3723     0F87  2F84               	goto	u2537
  3724     0F88  2F89               	nop2
  3725     0F89                     l1645:
  3726                           
  3727                           ;bienap.c: 28:     GO_nDONE = 1;
  3728     0F89  1283               	bcf	3,5	;RP0=0, select bank0
  3729     0F8A  1303               	bcf	3,6	;RP1=0, select bank0
  3730     0F8B  151F               	bsf	31,2	;volatile
  3731     0F8C                     l36:	
  3732                           ;bienap.c: 29:     while (GO_nDONE);
  3733                           
  3734     0F8C  191F               	btfsc	31,2	;volatile
  3735     0F8D  2F8F               	goto	u2381
  3736     0F8E  2F90               	goto	u2380
  3737     0F8F                     u2381:
  3738     0F8F  2F8C               	goto	l36
  3739     0F90                     u2380:
  3740     0F90                     l1647:
  3741                           
  3742                           ;bienap.c: 30:     return ((ADRESH << 8) + ADRESL);
  3743     0F90  081E               	movf	30,w	;volatile
  3744     0F91  00F1               	movwf	?_ADC_Read+1
  3745     0F92  1683               	bsf	3,5	;RP0=1, select bank1
  3746     0F93  1303               	bcf	3,6	;RP1=0, select bank1
  3747     0F94  081E               	movf	30,w	;volatile
  3748     0F95  00F0               	movwf	?_ADC_Read
  3749     0F96                     l35:
  3750     0F96  0008               	return
  3751     0F97                     __end_of_ADC_Read:
  3752                           
  3753                           	psect	text11
  3754     0009                     __ptext11:	
  3755 ;; *************** function _ADC_Init *****************
  3756 ;; Defined at:
  3757 ;;		line 17 in file "bienap.c"
  3758 ;; Parameters:    Size  Location     Type
  3759 ;;		None
  3760 ;; Auto vars:     Size  Location     Type
  3761 ;;		None
  3762 ;; Return value:  Size  Location     Type
  3763 ;;                  1    wreg      void 
  3764 ;; Registers used:
  3765 ;;		wreg
  3766 ;; Tracked objects:
  3767 ;;		On entry : 0/0
  3768 ;;		On exit  : 0/0
  3769 ;;		Unchanged: 0/0
  3770 ;; Data sizes:     COMMON   BANK0   BANK1   BANK3   BANK2
  3771 ;;      Params:         0       0       0       0       0
  3772 ;;      Locals:         0       0       0       0       0
  3773 ;;      Temps:          0       0       0       0       0
  3774 ;;      Totals:         0       0       0       0       0
  3775 ;;Total ram usage:        0 bytes
  3776 ;; Hardware stack levels used: 1
  3777 ;; This function calls:
  3778 ;;		Nothing
  3779 ;; This function is called by:
  3780 ;;		_main
  3781 ;; This function uses a non-reentrant model
  3782 ;;
  3783                           
  3784     0009                     _ADC_Init:	
  3785                           ;psect for function _ADC_Init
  3786                           
  3787     0009                     l1633:	
  3788                           ;incstack = 0
  3789                           ; Regs used in _ADC_Init: [wreg]
  3790                           
  3791                           
  3792                           ;bienap.c: 18:     ADCON0 = 0x41;
  3793     0009  3041               	movlw	65
  3794     000A  1283               	bcf	3,5	;RP0=0, select bank0
  3795     000B  1303               	bcf	3,6	;RP1=0, select bank0
  3796     000C  009F               	movwf	31	;volatile
  3797                           
  3798                           ;bienap.c: 19:     ADCON1 = 0x80;
  3799     000D  3080               	movlw	128
  3800     000E  1683               	bsf	3,5	;RP0=1, select bank1
  3801     000F  1303               	bcf	3,6	;RP1=0, select bank1
  3802     0010  009F               	movwf	31	;volatile
  3803     0011                     l31:
  3804     0011  0008               	return
  3805     0012                     __end_of_ADC_Init:
  3806     007E                     btemp	set	126	;btemp
  3807     007E                     wtemp0	set	126
  3808                           
  3809                           	psect	config
  3810                           
  3811                           ;Config register CONFIG @ 0x2007
  3812                           ;	Oscillator Selection bits
  3813                           ;	FOSC = HS, HS oscillator
  3814                           ;	Watchdog Timer Enable bit
  3815                           ;	WDTE = OFF, WDT disabled
  3816                           ;	Power-up Timer Enable bit
  3817                           ;	PWRTE = OFF, PWRT disabled
  3818                           ;	Brown-out Reset Enable bit
  3819                           ;	BOREN = ON, BOR enabled
  3820                           ;	Low-Voltage (Single-Supply) In-Circuit Serial Programming Enable bit
  3821                           ;	LVP = ON, RB3/PGM pin has PGM function; low-voltage programming enabled
  3822                           ;	Data EEPROM Memory Code Protection bit
  3823                           ;	CPD = OFF, Data EEPROM code protection off
  3824                           ;	Flash Program Memory Write Enable bits
  3825                           ;	WRT = OFF, Write protection off; all program memory may be written to by EECON control
  3826                           ;	In-Circuit Debugger Mode bit
  3827                           ;	DEBUG = 0x1, unprogrammed default
  3828                           ;	Flash Program Memory Code Protection bit
  3829                           ;	CP = OFF, Code protection off
  3830     2007                     	org	8199
  3831     2007  3FFA               	dw	16378

Data Sizes:
    Strings     0
    Constant    0
    Data        20
    BSS         0
    Persistent  0
    Stack       0

Auto Spaces:
    Space          Size  Autos    Used
    COMMON           14     13      13
    BANK0            80     80      80
    BANK1            80      0      20
    BANK3            96      0       0
    BANK2            96      0       0

Pointer List with Targets:

    None.

Critical Paths under _main in COMMON

    _main->___lwdiv
    ___xxtofl->___lwdiv
    ___lwdiv->___wmul

Critical Paths under _main in BANK0

    _main->_display
    _display->___fltol
    ___fltol->___flmul
    ___flsub->___xxtofl
    ___flmul->___flsub

Critical Paths under _main in BANK1

    None.

Critical Paths under _main in BANK3

    None.

Critical Paths under _main in BANK2

    None.

Call Graph Tables:

 ---------------------------------------------------------------------------------
 (Depth) Function   	        Calls       Base Space   Used Autos Params    Refs
 ---------------------------------------------------------------------------------
 (0) _main                                                10    10      0    7037
                                             70 BANK0     10    10      0
                           _ADC_Init
                           _ADC_Read
                            ___lwdiv
                             ___wmul
                           ___xxtofl
                            _display
 ---------------------------------------------------------------------------------
 (1) _display                                             12     8      4    5839
                                             58 BANK0     12     8      4
                            ___flmul
                            ___flsub
                            ___fltol
                           ___xxtofl
 ---------------------------------------------------------------------------------
 (2) ___xxtofl                                            14    10      4     474
                                              0 BANK0     14    10      4
                            ___lwdiv (ARG)
                             ___wmul (ARG)
 ---------------------------------------------------------------------------------
 (2) ___fltol                                             10     6      4     381
                                             48 BANK0     10     6      4
                            ___flmul (ARG)
                            ___flsub (ARG)
                           ___xxtofl (ARG)
 ---------------------------------------------------------------------------------
 (2) ___flsub                                              8     0      8    2333
                                             14 BANK0      8     0      8
                            ___fladd
                           ___xxtofl (ARG)
 ---------------------------------------------------------------------------------
 (3) ___fladd                                             20    12      8    2136
                                              0 COMMON    12     4      8
                                              0 BANK0      8     8      0
 ---------------------------------------------------------------------------------
 (2) ___flmul                                             26    18      8    2417
                                             22 BANK0     26    18      8
                          __Umul8_16
                            ___flsub (ARG)
                           ___xxtofl (ARG)
 ---------------------------------------------------------------------------------
 (3) __Umul8_16                                            9     7      2     799
                                              0 COMMON     9     7      2
 ---------------------------------------------------------------------------------
 (1) ___wmul                                               6     2      4     244
                                              0 COMMON     6     2      4
 ---------------------------------------------------------------------------------
 (1) ___lwdiv                                              7     3      4     314
                                              6 COMMON     7     3      4
                             ___wmul (ARG)
 ---------------------------------------------------------------------------------
 (1) _ADC_Read                                             4     2      2     120
                                              0 COMMON     4     2      2
 ---------------------------------------------------------------------------------
 (1) _ADC_Init                                             0     0      0       0
 ---------------------------------------------------------------------------------
 Estimated maximum stack depth 3
 ---------------------------------------------------------------------------------

 Call Graph Graphs:

 _main (ROOT)
   _ADC_Init
   _ADC_Read
   ___lwdiv
     ___wmul (ARG)
   ___wmul
   ___xxtofl
     ___lwdiv (ARG)
     ___wmul (ARG)
   _display
     ___flmul
       __Umul8_16
       ___flsub (ARG)
         ___fladd
         ___xxtofl (ARG)
       ___xxtofl (ARG)
     ___flsub
     ___fltol
       ___flmul (ARG)
       ___flsub (ARG)
       ___xxtofl (ARG)
     ___xxtofl

 Address spaces:
Name               Size   Autos  Total    Cost      Usage
BANK3               60      0       0       9        0.0%
BITBANK3            60      0       0       8        0.0%
SFR3                 0      0       0       4        0.0%
BITSFR3              0      0       0       4        0.0%
BANK2               60      0       0      11        0.0%
BITBANK2            60      0       0      10        0.0%
SFR2                 0      0       0       5        0.0%
BITSFR2              0      0       0       5        0.0%
BANK1               50      0      14       7       25.0%
BITBANK1            50      0       0       6        0.0%
SFR1                 0      0       0       2        0.0%
BITSFR1              0      0       0       2        0.0%
BANK0               50     50      50       5      100.0%
BITBANK0            50      0       0       4        0.0%
SFR0                 0      0       0       1        0.0%
BITSFR0              0      0       0       1        0.0%
COMMON               E      D       D       1       92.9%
BITCOMMON            E      0       0       0        0.0%
CODE                 0      0       0       0        0.0%
DATA                 0      0      71      12        0.0%
ABS                  0      0      71       3        0.0%
NULL                 0      0       0       0        0.0%
STACK                0      0       0       2        0.0%
EEDATA             100      0       0       0        0.0%


Microchip Technology PIC Macro Assembler V2.41 build 20230208172133 
Symbol Table                                                                                   Wed Aug 07 15:01:16 2024

                      pc 0002                       l31 0011                       l35 0F96  
                     l43 018A                       l36 0F8C                       fsr 0004  
    ___wmul@multiplicand 0072      __Umul8_16@word_mpld 0076                      l137 0F1D  
                    l330 00CC                      l139 0F35                      l323 00E1  
                    l333 00E1                      l430 02A0                      l409 0069  
                    l434 0323                      l451 03F2                      l443 04A8  
                    l532 075D                      l436 02FA                      l461 043A  
                    l526 07ED                      l455 0418                      l545 0F4A  
                    l473 04A8                      l570 01AF                      l547 0F5C  
                    l476 0F10                      l572 0244                      l583 020E  
                    l584 021A                      _RC0 0038                      _RC1 0039  
                    _dot 00A0                      fsr0 0004                      indf 0000  
           ___flmul@aexp 0048             ___flmul@bexp 0049             ___flmul@sign 0043  
           ___flmul@temp 004E             ___flmul@prod 004A             ___fltol@exp1 0059  
                   l1201 0266                     l1211 027A                     l1203 0268  
                   l1301 0363                     l1221 028D                     l1213 027E  
                   l1205 0270                     l1311 03CA                     l1303 0364  
                   l1231 02AA                     l1223 0295                     l1215 0282  
                   l1207 0273                     l1321 03FA                     l1313 03CE  
                   l1305 036F                     l1241 02B6                     l1233 02AE  
                   l1225 0296                     l1217 0283                     l1209 0279  
                   l1401 0075                     l1331 0417                     l1323 03FF  
                   l1315 03D0                     l1307 0374                     l1251 02C0  
                   l1243 02B8                     l1235 02B0                     l1219 0288  
                   l1227 0298                     l1411 009A                     l1501 05C4  
                   l1333 041C                     l1341 0428                     l1317 03D5  
                   l1309 038A                     l1261 02CA                     l1253 02C2  
                   l1245 02BA                     l1237 02B2                     l1229 02A6  
                   l1421 00A8                     l1413 009C                     l1405 007E  
                   l1511 0623                     l1503 05CD                     l1335 041F  
                   l1327 0408                     l1319 03E4                     l1343 042C  
                   l1271 0307                     l1255 02C4                     l1247 02BC  
                   l1239 02B4                     l1263 02CC                     l1191 0252  
                   l1431 00C1                     l1423 00B1                     l1415 00A0  
                   l1407 0091                     l1521 06BB                     l1513 063A  
                   l1505 05DB                     l1361 0476                     l1353 043F  
                   l1345 042D                     l1337 0421                     l1329 0413  
                   l1273 0309                     l1281 031D                     l1265 02CD  
                   l1257 02C6                     l1249 02BE                     l1193 0253  
                   l1185 0245                     l1433 00D1                     l1425 00BA  
                   l1409 0092                     l1601 01C7                     l1531 0729  
                   l1523 06E1                     l1515 0657                     l1507 05F8  
                   l1451 04B7                     l1443 04A9                     l1371 0491  
                   l1355 0444                     l1363 047A                     l1347 0431  
                   l1339 0426                     l1291 034C                     l1283 0327  
                   l1275 030D                     l1267 02E4                     l1259 02C8  
                   l1195 0258                     l1187 0248                     l1435 00D6  
                   l1611 01F2                     l1603 01D0                     l1701 0040  
                   l1541 0741                     l1533 072D                     l1525 0709  
                   l1517 0682                     l1509 0606                     l1461 04D3  
                   l1453 04BC                     l1445 04AE                     l1381 04A3  
                   l1373 0492                     l1365 047F                     l1357 0452  
                   l1349 0437                     l1293 0350                     l1285 032C  
                   l1277 030E                     l1269 02FE                     l1197 025D  
                   l1189 024E                     l1437 0EED                     l1621 021C  
                   l1613 01F9                     l1605 01D7                     l1703 0051  
                   l1711 0065                     l1391 0F44                     l1551 0762  
                   l1543 0742                     l1535 072E                     l1527 0712  
                   l1519 0690                     l1471 04E6                     l1463 04D8  
                   l1455 04C1                     l1447 04B2                     l1383 04A7  
                   l1375 0496                     l1367 0484                     l1359 0456  
                   l1295 0354                     l1279 0319                     l1199 0265  
                   l1439 0EF1                     l1623 0232                     l1615 0204  
                   l1607 01DB                     l1633 0009                     l1641 0F6D  
                   l1705 0057                     l1393 0F53                     l1385 0F37  
                   l1553 0767                     l1561 0798                     l1545 0746  
                   l1537 0737                     l1529 0720                     l1481 0502  
                   l1473 04EB                     l1465 04DC                     l1457 04C9  
                   l1449 04B6                     l1377 0498                     l1369 048C  
                   l1297 035D                     l1289 0335                     l1625 0237  
                   l1617 0208                     l1609 01E9                     l1721 0FA7  
                   l1643 0F80                     l1635 0F5D                     l1707 0058  
                   l1395 0F58                     l1387 0F39                     l1571 07CB  
                   l1563 07A5                     l1555 0775                     l1547 075A  
                   l1539 073D                     l1491 052B                     l1483 0507  
                   l1475 04F3                     l1467 04E0                     l1459 04CB  
                   l1379 049C                     l1299 035F                     l1627 023B  
                   l1619 0212                     l1651 00E2                     l1723 0FB5  
                   l1715 0F97                     l1645 0F89                     l1637 0F6A  
                   l1709 005F                     l1389 0F40                     l1581 07E5  
                   l1573 07D7                     l1565 07B0                     l1557 0779  
                   l1493 0546                     l1477 04F5                     l1469 04E1  
                   l1629 023C                     l1661 0153                     l1653 0149  
                   l1725 0FEF                     l1717 0FA0                     l1647 0F90  
                   l1575 07DB                     l1567 07BF                     l1559 0792  
                   l1495 0562                     l1487 0510                     l1479 04FD  
                   l1399 006A                     l1591 01A7                     l1671 0174  
                   l1663 0154                     l1719 0FA2                     l1681 0F24  
                   l1577 07DC                     l1569 07C9                     l1497 058C  
                   l1489 051E                     l1593 01B7                     l1585 018E  
                   l1673 017D                     l1665 015F                     l1691 0028  
                   l1683 0F2B                     l1675 0F11                     l1579 07E1  
                   l1499 05A8                     l1587 0193                     l1667 0162  
                   l1659 014B                     l1693 002E                     l1685 0F31  
                   l1677 0F13                     l1597 01C0                     l1589 0197  
                   l1669 0168                     l1695 0031                     l1679 0F17  
                   l1599 01C3                     l1697 0038                     l1689 0026  
                   l1699 003C                     u2011 0649                     u2100 072D  
                   u2012 0650                     u1300 0282                     u2101 072C  
                   u2021 0674                     u2013 0657                     u2005 0625  
                   u1301 0281                     u2022 067B                     u1310 0288  
                   u2031 069F                     u2023 0682                     u1311 0287  
                   u2200 07BF                     u2120 0741                     u2040 06C7  
                   u2032 06A6                     u1320 028D                     u2201 07BE  
                   u2121 0740                     u2033 06AD                     u1321 028C  
                   u2210 07DB                     u2130 0746                     u1410 0323  
                   u1330 02A6                     u2211 07DA                     u2131 0745  
                   u2115 0730                     u2051 06D3                     u1411 0322  
                   u1331 02A5                     u2140 075A                     u2060 06EF  
                   u2052 06DA                     u1420 0327                     u1340 02AA  
                   u1260 0252                     u2300 0208                     u2220 0193  
                   u2205 07BB                     u2141 0759                     u2053 06E1  
                   u2045 06C2                     u1501 03A3                     u1421 0326  
                   u1405 0312                     u1341 02A9                     u1261 0251  
                   u2301 0207                     u2221 0192                     u2150 0761  
                   u1510 03B7                     u1502 03A4                     u1430 032C  
                   u1350 02E4                     u1270 0258                     u2310 020E  
                   u2230 0197                     u2151 0760                     u2071 06FB  
                   u1511 03B8                     u1503 03A9                     u1431 032B  
                   u1351 02E3                     u1271 0257                     u2311 020D  
                   u2231 0196                     u2400 0F17                     u2160 0767  
                   u2072 0702                     u1600 0431                     u1520 03D5  
                   u1512 03BD                     u1504 03AA                     u1360 02ED  
                   u1280 025D                     u2320 0212                     u2240 01B7  
                   u2401 0F16                     u2161 0766                     u2073 0709  
                   u2065 06EA                     u1601 0430                     u1521 03D4  
                   u1513 03BE                     u1505 03AF                     u1441 033E  
                   u1361 02EB                     u1281 025C                     u2321 0211  
                   u2241 01B6                     u2170 0779                     u1610 0437  
                   u1530 03FA                     u1506 03B0                     u1450 0350  
                   u1442 0345                     u1370 02EE                     u1290 0279  
                   u2330 0227                     u2171 0778                     u1611 0436  
                   u1531 03F9                     u1451 034F                     u1443 034C  
                   u1355 02E0                     u1291 0278                     u2500 0065  
                   u2180 0788                     u1700 0496                     u1620 043E  
                   u1540 03FF                     u1460 0354                     u1380 02FE  
                   u2340 0237                     u2260 01D6                     u2501 0064  
                   u2085 070B                     u1701 0495                     u1621 043D  
                   u1541 03FE                     u1461 0353                     u1381 02FD  
                   u2341 0236                     u2261 01D5                     u2430 0F31  
                   u2190 07A5                     u1710 04A7                     u1630 0444  
                   u1470 0363                     u1390 030D                     u2350 023B  
                   u2431 0F30                     u2415 0F1E                     u2191 07A4  
                   u2095 0722                     u1711 04A6                     u1631 0443  
                   u1471 0362                     u1391 030C                     u2351 023A  
                   u2335 0222                     u2255 01C8                     u2360 0F6A  
                   u2440 002E                     u1720 0F44                     u1640 0456  
                   u1560 0417                     u1800 00B9                     u2280 01F8  
                   u2361 0F69                     u2441 002D                     u2425 0F25  
                   u1721 0F43                     u2185 0783                     u1641 0455  
                   u1561 0416                     u1801 00B8                     u2281 01F7  
                   u1650 0467                     u1570 041C                     u1490 038A  
                   u1810 00C0                     u2195 07A1                     u1571 041B  
                   u1555 040C                     u1491 0389                     u1811 00BF  
                   u2275 01EA                     u2380 0F90                     u2460 0040  
                   u1740 0F58                     u1900 04EB                     u1660 0476  
                   u1580 0426                     u2381 0F8F                     u2365 0F66  
                   u2461 003F                     u1741 0F57                     u1901 04EA  
                   u1661 0475                     u1581 0425                     u1493 0386  
                   u1485 0368                     u2517 015A                     u1910 0502  
                   u1670 047F                     u1590 042C                     u1830 00D1  
                   u1750 0075                     u2390 018A                     u2375 0F76  
                   u2455 0032                     u1735 0F4B                     u1911 0501  
                   u1671 047E                     u1655 0462                     u1591 042B  
                   u1831 00D0                     u1751 0074                     u2295 01FD  
                   u2391 0189                     u2527 016F                     u2480 0051  
                   u1920 0507                     u1680 0484                     u1840 00D6  
                   u1760 008C                     u2537 0F84                     u2481 0050  
                   u1921 0506                     u1681 0483                     u1841 00D5  
                   u1825 00C3                     u1850 04B6                     u1690 0491  
                   u1770 00A0                     u2475 0041                     u1931 0554  
                   u1851 04B5                     u1691 0490                     u1771 009F  
                   u2395 0186                     u1932 055B                     u1860 04BC  
                   u1780 00A7                     u2485 004D                     u1941 0570  
                   u1933 0562                     u1861 04BB                     u1781 00A6  
                   u1765 0087                     u1942 0577                     u1870 04C1  
                   u2495 0059                     u1951 059A                     u1943 057E  
                   u1871 04C0                     u1952 05A1                     u1880 04E0  
                   u1961 05B6                     u1953 05A8                     u1881 04DF  
                   u1962 05BD                     u1890 04E6                     u1963 05C4  
                   u1891 04E5                     u1795 00A9                     u1981 05EA  
                   u1982 05F1                     u1991 0615                     u1983 05F8  
                   u1975 05C6                     u1992 061C                     u1993 0623  
                   _main 0F97                     btemp 007E         __end_of_ADC_Init 0012  
       __end_of_ADC_Read 0F97                     start 0000              main@voltage 006A  
          ___fltol@sign1 0058          __end_of___fladd 04A9                    ?_main 0070  
        __end_of___flmul 07EE          __end_of___flsub 0F11          __end_of___fltol 00E2  
        __end_of___lwdiv 006A                    _PORTB 0006                    _TRISA 0085  
                  _TRISB 0086                    _TRISC 0087          __end_of_display 018B  
                  pclath 000A                    status 0003                    wtemp0 007E  
        __initialization 07EE             __end_of_main 1000                   ??_main 0066  
                 _ADCON0 001F                   _ADCON1 009F                   _ADRESH 001E  
                 _ADRESL 009E         __end_of___xxtofl 0245                ??___fladd 0020  
                 ___wmul 0F11                ??___flmul 003E                ??___flsub 007D  
              ??___fltol 0054                ??___lwdiv 007A          ADC_Read@channel 0070  
          main@value_adc 006E                ??_display 005E                ?_ADC_Init 0070  
              ?_ADC_Read 0070             ___xxtofl@arg 002A             ___xxtofl@exp 0029  
           ___xxtofl@val 0020  __end_of__initialization 07FC               ___fltol@f1 0050  
         __pcstackCOMMON 0070             __pidataBANK1 0012               ??_ADC_Init 0070  
             ??_ADC_Read 0072        __end_of__Umul8_16 0F5D               __pmaintext 0F97  
                ?___wmul 0070                ?___xxtofl 0020                  ___fladd 0245  
                ___flmul 04A9                  ___flsub 0EED                  ___fltol 006A  
                ___lwdiv 0026                  _digital 00AA           display@voltage 005A  
                __ptext1 00E2                  __ptext2 018B                  __ptext3 006A  
                __ptext4 0EED                  __ptext5 0245                  __ptext6 04A9  
                __ptext7 0F36                  __ptext8 0F11                  __ptext9 0026  
                _display 00E2               ??___xxtofl 0024     end_of_initialization 07FC  
            ___fladd@grs 007B            ___xxtofl@sign 0028              ___flmul@grs 0044  
    display@decimal_part 0060           __end_of___wmul 0F36      start_initialization 07EE  
               ??___wmul 0074               init_fetch0 0EDA                __Umul8_16 0F36  
            __pdataBANK1 00A0                ___fladd@a 0074                ___fladd@b 0070  
              ___flmul@a 003A                ___flmul@b 0036                ___flsub@a 002E  
              ___flsub@b 0032                ___latbits 0002            __pcstackBANK0 0020  
       ___lwdiv@dividend 0078                 ?___fladd 0070                 ?___flmul 0036  
               ?___flsub 002E                 ?___fltol 0050               ?__Umul8_16 0070  
               ?___lwdiv 0076                 ?_display 005A                 _ADC_Init 0009  
               _ADC_Read 0F5D         ___lwdiv@quotient 007A           ___wmul@product 0074  
               _GO_nDONE 00FA        ___wmul@multiplier 0070              ??__Umul8_16 0072  
               ___xxtofl 018B          ___lwdiv@divisor 0076          ___lwdiv@counter 007C  
               __ptext10 0F5D                 __ptext11 0009                 display@i 0064  
               init_ram0 0EDE   __Umul8_16@multiplicand 0070      display@integer_part 0062  
          ___fladd@signs 0078             ___fladd@aexp 0079             ___fladd@bexp 007A  
   __Umul8_16@multiplier 0078        __Umul8_16@product 0074  
